(lp0
(lp1
ccopy_reg
_reconstructor
p2
(ctrial
OptionResult
p3
c__builtin__
object
p4
Ntp5
Rp6
(dp7
S'expected_counts'
p8
I4
sS'sort_positions'
p9
(lp10
I6
aI9
aI25
aI38
asS'eegs'
p11
(lp12
F24.649
aF18.148
aF-6.4456
aF-24.649
asS'idx'
p13
I0
sbag2
(g3
g4
Ntp14
Rp15
(dp16
g8
I5
sg9
(lp17
I36
aI5
aI24
aI12
aI2
asg11
(lp18
F-21.853
aF24.819
aF-5.2152
aF15.248
aF49.839
asg13
I1
sbag2
(g3
g4
Ntp19
Rp20
(dp21
g8
I5
sg9
(lp22
I27
aI34
aI29
aI33
aI39
asg11
(lp23
F-12.92
aF-20.99
aF-14.38
aF-19.691
aF-27.574
asg13
I2
sbag2
(g3
g4
Ntp24
Rp25
(dp26
g8
I3
sg9
(lp27
I8
aI16
aI15
asg11
(lp28
F24.013
aF6.2219
aF7.3099
asg13
I3
sbag2
(g3
g4
Ntp29
Rp30
(dp31
g8
I3
sg9
(lp32
I28
aI37
aI14
asg11
(lp33
F-13.153
aF-22.31
aF7.5266
asg13
I4
sbag2
(g3
g4
Ntp34
Rp35
(dp36
g8
I6
sg9
(lp37
I23
aI26
aI31
aI10
aI4
aI7
asg11
(lp38
F-3.5285
aF-10.672
aF-16.941
aF18.018
aF36.235
aF24.609
asg13
I5
sbag2
(g3
g4
Ntp39
Rp40
(dp41
g8
I5
sg9
(lp42
I35
aI20
aI21
aI1
aI3
asg11
(lp43
F-21.405
aF-2.0071
aF-2.0174
aF66.09
aF45.819
asg13
I6
sbag2
(g3
g4
Ntp44
Rp45
(dp46
g8
I6
sg9
(lp47
I40
aI11
aI22
aI17
aI43
aI42
asg11
(lp48
F-27.658
aF17.117
aF-2.9632
aF4.6227
aF-36.112
aF-31.583
asg13
I7
sbag2
(g3
g4
Ntp49
Rp50
(dp51
g8
I6
sg9
(lp52
I19
aI32
aI41
aI46
aI44
aI45
asg11
(lp53
F0.99848
aF-19.074
aF-31.469
aF-58.407
aF-37.302
aF-55.03
asg13
I8
sbag2
(g3
g4
Ntp54
Rp55
(dp56
g8
I3
sg9
(lp57
I30
aI13
aI18
asg11
(lp58
F-15.487
aF8.7513
aF2.6754
asg13
I9
sbaa(lp59
g2
(g3
g4
Ntp60
Rp61
(dp62
g8
I6
sg9
(lp63
I35
aI43
aI12
aI41
aI42
aI44
asg11
(lp64
F-15.843
aF-26.528
aF6.5974
aF-24.671
aF-24.791
aF-28.25
asg13
I0
sbag2
(g3
g4
Ntp65
Rp66
(dp67
g8
I6
sg9
(lp68
I14
aI24
aI25
aI38
aI7
aI17
asg11
(lp69
F4.2279
aF-5.5217
aF-5.9197
aF-22.084
aF17.971
aF0.49162
asg13
I1
sbag2
(g3
g4
Ntp70
Rp71
(dp72
g8
I4
sg9
(lp73
I29
aI48
aI36
aI28
asg11
(lp74
F-9.7546
aF-37.178
aF-16.295
aF-9.0793
asg13
I2
sbag2
(g3
g4
Ntp75
Rp76
(dp77
g8
I6
sg9
(lp78
I4
aI20
aI11
aI22
aI13
aI39
asg11
(lp79
F20.654
aF-1.0903
aF8.271
aF-2.2574
aF5.9972
aF-22.248
asg13
I3
sbag2
(g3
g4
Ntp80
Rp81
(dp82
g8
I6
sg9
(lp83
I37
aI27
aI34
aI19
aI23
aI31
asg11
(lp84
F-20.35
aF-8.5516
aF-15.613
aF-0.98915
aF-2.8926
aF-13.749
asg13
I4
sbag2
(g3
g4
Ntp85
Rp86
(dp87
g8
I6
sg9
(lp88
I10
aI30
aI3
aI40
aI45
aI8
asg11
(lp89
F13.765
aF-13.547
aF25.811
aF-24.544
aF-29.21
aF17.046
asg13
I5
sbag2
(g3
g4
Ntp90
Rp91
(dp92
g8
I5
sg9
(lp93
I47
aI2
aI15
aI33
aI26
asg11
(lp94
F-34.558
aF29.134
aF1.5722
aF-15.59
aF-6.6786
asg13
I6
sbag2
(g3
g4
Ntp95
Rp96
(dp97
g8
I3
sg9
(lp98
I32
aI6
aI9
asg11
(lp99
F-14.291
aF18.703
aF14.908
asg13
I7
sbag2
(g3
g4
Ntp100
Rp101
(dp102
g8
I3
sg9
(lp103
I5
aI21
aI18
asg11
(lp104
F18.875
aF-1.9664
aF-0.93001
asg13
I8
sbag2
(g3
g4
Ntp105
Rp106
(dp107
g8
I3
sg9
(lp108
I1
aI16
aI46
asg11
(lp109
F40.719
aF1.0136
aF-32.578
asg13
I9
sbaa.