(lp0
(lp1
ccopy_reg
_reconstructor
p2
(ctrial
OptionResult
p3
c__builtin__
object
p4
Ntp5
Rp6
(dp7
S'expected_counts'
p8
I3
sS'sort_positions'
p9
(lp10
I20
aI7
aI19
asS'eegs'
p11
(lp12
F-3.8353
aF-3.0166
aF-3.8113
asS'idx'
p13
I0
sbag2
(g3
g4
Ntp14
Rp15
(dp16
g8
I3
sg9
(lp17
I32
aI15
aI16
asg11
(lp18
F-4.8999
aF-3.5253
aF-3.6014
asg13
I1
sbag2
(g3
g4
Ntp19
Rp20
(dp21
g8
I3
sg9
(lp22
I31
aI1
aI27
asg11
(lp23
F-4.6481
aF-2.3669
aF-4.1018
asg13
I2
sbag2
(g3
g4
Ntp24
Rp25
(dp26
g8
I5
sg9
(lp27
I30
aI14
aI26
aI25
aI11
asg11
(lp28
F-4.6339
aF-3.4038
aF-4.0918
aF-4.0479
aF-3.1507
asg13
I3
sbag2
(g3
g4
Ntp29
Rp30
(dp31
g8
I3
sg9
(lp32
I21
aI17
aI35
asg11
(lp33
F-3.8418
aF-3.7158
aF-5.2481
asg13
I4
sbag2
(g3
g4
Ntp34
Rp35
(dp36
g8
I4
sg9
(lp37
I18
aI41
aI10
aI22
asg11
(lp38
F-3.744
aF-6.6117
aF-3.1224
aF-3.8467
asg13
I5
sbag2
(g3
g4
Ntp39
Rp40
(dp41
g8
I5
sg9
(lp42
I39
aI12
aI13
aI6
aI38
asg11
(lp43
F-6.1434
aF-3.294
aF-3.3654
aF-3.0053
aF-6.0719
asg13
I6
sbag2
(g3
g4
Ntp44
Rp45
(dp46
g8
I6
sg9
(lp47
I36
aI28
aI2
aI3
aI40
aI5
asg11
(lp48
F-5.4055
aF-4.2296
aF-2.4193
aF-2.6721
aF-6.5061
aF-2.8497
asg13
I7
sbag2
(g3
g4
Ntp49
Rp50
(dp51
g8
I6
sg9
(lp52
I33
aI24
aI4
aI8
aI34
aI23
asg11
(lp53
F-5.072
aF-4.0091
aF-2.6893
aF-3.063
aF-5.1129
aF-3.9373
asg13
I8
sbag2
(g3
g4
Ntp54
Rp55
(dp56
g8
I3
sg9
(lp57
I9
aI29
aI37
asg11
(lp58
F-3.1109
aF-4.313
aF-5.603
asg13
I9
sbaa(lp59
g2
(g3
g4
Ntp60
Rp61
(dp62
g8
I3
sg9
(lp63
I46
aI10
aI20
asg11
(lp64
F-6.9712
aF-2.6675
aF-3.6786
asg13
I0
sbag2
(g3
g4
Ntp65
Rp66
(dp67
g8
I6
sg9
(lp68
I38
aI12
aI26
aI25
aI5
aI35
asg11
(lp69
F-5.2859
aF-2.7582
aF-4.2034
aF-4.1676
aF-2.025
aF-5.0138
asg13
I1
sbag2
(g3
g4
Ntp70
Rp71
(dp72
g8
I3
sg9
(lp73
I14
aI9
aI16
asg11
(lp74
F-2.8391
aF-2.5367
aF-2.9314
asg13
I2
sbag2
(g3
g4
Ntp75
Rp76
(dp77
g8
I4
sg9
(lp78
I43
aI24
aI40
aI41
asg11
(lp79
F-6.3058
aF-4.1026
aF-5.5284
aF-5.6189
asg13
I3
sbag2
(g3
g4
Ntp80
Rp81
(dp82
g8
I6
sg9
(lp83
I18
aI28
aI4
aI32
aI29
aI11
asg11
(lp84
F-3.4374
aF-4.3171
aF-1.7731
aF-4.8456
aF-4.3264
aF-2.7342
asg13
I4
sbag2
(g3
g4
Ntp85
Rp86
(dp87
g8
I5
sg9
(lp88
I37
aI44
aI23
aI21
aI2
asg11
(lp89
F-5.207
aF-6.3079
aF-3.9374
aF-3.7263
aF-0.75507
asg13
I5
sbag2
(g3
g4
Ntp90
Rp91
(dp92
g8
I6
sg9
(lp93
I33
aI7
aI45
aI39
aI8
aI13
asg11
(lp94
F-4.8816
aF-2.445
aF-6.5279
aF-5.2985
aF-2.4773
aF-2.7983
asg13
I6
sbag2
(g3
g4
Ntp95
Rp96
(dp97
g8
I4
sg9
(lp98
I3
aI36
aI27
aI34
asg11
(lp99
F-1.5125
aF-5.0816
aF-4.2955
aF-4.9452
asg13
I7
sbag2
(g3
g4
Ntp100
Rp101
(dp102
g8
I6
sg9
(lp103
I30
aI15
aI17
aI22
aI6
aI42
asg11
(lp104
F-4.4777
aF-2.8477
aF-3.3807
aF-3.7462
aF-2.3785
aF-5.8818
asg13
I8
sbag2
(g3
g4
Ntp105
Rp106
(dp107
g8
I3
sg9
(lp108
I19
aI1
aI31
asg11
(lp109
F-3.6588
aF-0.56626
aF-4.7509
asg13
I9
sbaa(lp110
g2
(g3
g4
Ntp111
Rp112
(dp113
g8
I5
sg9
(lp114
I10
aI6
aI26
aI22
aI21
asg11
(lp115
F-2.6846
aF-2.5046
aF-4.3815
aF-4.0629
aF-3.9684
asg13
I0
sbag2
(g3
g4
Ntp116
Rp117
(dp118
g8
I3
sg9
(lp119
I12
aI29
aI37
asg11
(lp120
F-2.8388
aF-4.7571
aF-5.8134
asg13
I1
sbag2
(g3
g4
Ntp121
Rp122
(dp123
g8
I5
sg9
(lp124
I16
aI33
aI23
aI18
aI1
asg11
(lp125
F-3.0304
aF-5.1478
aF-4.2888
aF-3.6254
aF-1.9263
asg13
I2
sbag2
(g3
g4
Ntp126
Rp127
(dp128
g8
I4
sg9
(lp129
I8
aI20
aI38
aI35
asg11
(lp130
F-2.5533
aF-3.7725
aF-6.5211
aF-5.6302
asg13
I3
sbag2
(g3
g4
Ntp131
Rp132
(dp133
g8
I3
sg9
(lp134
I4
aI31
aI3
asg11
(lp135
F-2.3999
aF-4.8362
aF-2.363
asg13
I4
sbag2
(g3
g4
Ntp136
Rp137
(dp138
g8
I5
sg9
(lp139
I39
aI25
aI27
aI19
aI28
asg11
(lp140
F-7.1596
aF-4.367
aF-4.3982
aF-3.6689
aF-4.4953
asg13
I5
sbag2
(g3
g4
Ntp141
Rp142
(dp143
g8
I3
sg9
(lp144
I36
aI7
aI24
asg11
(lp145
F-5.6809
aF-2.5366
aF-4.3391
asg13
I6
sbag2
(g3
g4
Ntp146
Rp147
(dp148
g8
I4
sg9
(lp149
I14
aI2
aI34
aI9
asg11
(lp150
F-2.9102
aF-2.2144
aF-5.52
aF-2.6754
asg13
I7
sbag2
(g3
g4
Ntp151
Rp152
(dp153
g8
I4
sg9
(lp154
I32
aI30
aI15
aI11
asg11
(lp155
F-4.8411
aF-4.7948
aF-2.976
aF-2.7353
asg13
I8
sbag2
(g3
g4
Ntp156
Rp157
(dp158
g8
I3
sg9
(lp159
I5
aI17
aI13
asg11
(lp160
F-2.4238
aF-3.0605
aF-2.8523
asg13
I9
sbaa(lp161
g2
(g3
g4
Ntp162
Rp163
(dp164
g8
I6
sg9
(lp165
I31
aI2
aI10
aI32
aI1
aI36
asg11
(lp166
F-4.9565
aF-1.2587
aF-2.7514
aF-5.0656
aF-0.62481
aF-5.3135
asg13
I0
sbag2
(g3
g4
Ntp167
Rp168
(dp169
g8
I6
sg9
(lp170
I6
aI35
aI45
aI39
aI41
aI40
asg11
(lp171
F-2.1093
aF-5.2886
aF-7.1797
aF-5.9161
aF-5.9699
aF-5.9574
asg13
I1
sbag2
(g3
g4
Ntp172
Rp173
(dp174
g8
I3
sg9
(lp175
I43
aI30
aI18
asg11
(lp176
F-6.0735
aF-4.4973
aF-3.715
asg13
I2
sbag2
(g3
g4
Ntp177
Rp178
(dp179
g8
I3
sg9
(lp180
I42
aI24
aI5
asg11
(lp181
F-6.0163
aF-4.3607
aF-1.8253
asg13
I3
sbag2
(g3
g4
Ntp182
Rp183
(dp184
g8
I4
sg9
(lp185
I7
aI15
aI16
aI20
asg11
(lp186
F-2.2315
aF-3.2992
aF-3.553
aF-4.0669
asg13
I4
sbag2
(g3
g4
Ntp187
Rp188
(dp189
g8
I4
sg9
(lp190
I8
aI11
aI12
aI44
asg11
(lp191
F-2.2773
aF-2.834
aF-2.9425
aF-6.8797
asg13
I5
sbag2
(g3
g4
Ntp192
Rp193
(dp194
g8
I5
sg9
(lp195
I17
aI3
aI13
aI25
aI27
asg11
(lp196
F-3.6986
aF-1.3973
aF-3.0183
aF-4.3928
aF-4.4209
asg13
I6
sbag2
(g3
g4
Ntp197
Rp198
(dp199
g8
I5
sg9
(lp200
I19
aI34
aI28
aI9
aI33
asg11
(lp201
F-3.7405
aF-5.2334
aF-4.4712
aF-2.6843
aF-5.067
asg13
I7
sbag2
(g3
g4
Ntp202
Rp203
(dp204
g8
I4
sg9
(lp205
I21
aI29
aI26
aI38
asg11
(lp206
F-4.0919
aF-4.4846
aF-4.4189
aF-5.4679
asg13
I8
sbag2
(g3
g4
Ntp207
Rp208
(dp209
g8
I5
sg9
(lp210
I22
aI23
aI37
aI14
aI4
asg11
(lp211
F-4.1866
aF-4.1984
aF-5.4044
aF-3.1451
aF-1.4181
asg13
I9
sbaa(lp212
g2
(g3
g4
Ntp213
Rp214
(dp215
g8
I3
sg9
(lp216
I40
aI35
aI5
asg11
(lp217
F-5.8059
aF-5.1748
aF-1.8931
asg13
I0
sbag2
(g3
g4
Ntp218
Rp219
(dp220
g8
I4
sg9
(lp221
I22
aI36
aI34
aI33
asg11
(lp222
F-3.5416
aF-5.2043
aF-5.1388
aF-5.1266
asg13
I1
sbag2
(g3
g4
Ntp223
Rp224
(dp225
g8
I4
sg9
(lp226
I8
aI45
aI43
aI39
asg11
(lp227
F-2.3985
aF-6.5249
aF-6.244
aF-5.7713
asg13
I2
sbag2
(g3
g4
Ntp228
Rp229
(dp230
g8
I4
sg9
(lp231
I41
aI37
aI7
aI19
asg11
(lp232
F-5.8311
aF-5.3086
aF-2.0558
aF-3.2551
asg13
I3
sbag2
(g3
g4
Ntp233
Rp234
(dp235
g8
I6
sg9
(lp236
I14
aI26
aI30
aI46
aI3
aI31
asg11
(lp237
F-2.8507
aF-4.0542
aF-4.4798
aF-6.6152
aF-1.1534
aF-4.8161
asg13
I4
sbag2
(g3
g4
Ntp238
Rp239
(dp240
g8
I6
sg9
(lp241
I27
aI15
aI9
aI28
aI32
aI12
asg11
(lp242
F-4.2251
aF-3.0738
aF-2.4229
aF-4.261
aF-5.0773
aF-2.7046
asg13
I5
sbag2
(g3
g4
Ntp243
Rp244
(dp245
g8
I4
sg9
(lp246
I29
aI4
aI10
aI13
asg11
(lp247
F-4.4572
aF-1.3883
aF-2.4947
aF-2.8293
asg13
I6
sbag2
(g3
g4
Ntp248
Rp249
(dp250
g8
I5
sg9
(lp251
I17
aI18
aI42
aI44
aI24
asg11
(lp252
F-3.1853
aF-3.2347
aF-5.9711
aF-6.4628
aF-3.7855
asg13
I7
sbag2
(g3
g4
Ntp253
Rp254
(dp255
g8
I6
sg9
(lp256
I1
aI16
aI20
aI21
aI25
aI11
asg11
(lp257
F-0.28317
aF-3.1301
aF-3.3982
aF-3.4453
aF-3.9227
aF-2.5478
asg13
I8
sbag2
(g3
g4
Ntp258
Rp259
(dp260
g8
I4
sg9
(lp261
I2
aI23
aI6
aI38
asg11
(lp262
F-0.83383
aF-3.5944
aF-1.9177
aF-5.6274
asg13
I9
sbaa(lp263
g2
(g3
g4
Ntp264
Rp265
(dp266
g8
I6
sg9
(lp267
I24
aI9
aI12
aI43
aI22
aI4
asg11
(lp268
F-3.9448
aF-2.5432
aF-3.0977
aF-5.8799
aF-3.6606
aF-1.7189
asg13
I0
sbag2
(g3
g4
Ntp269
Rp270
(dp271
g8
I5
sg9
(lp272
I17
aI2
aI3
aI46
aI26
asg11
(lp273
F-3.5475
aF-1.1546
aF-1.3884
aF-6.5685
aF-3.9974
asg13
I1
sbag2
(g3
g4
Ntp274
Rp275
(dp276
g8
I3
sg9
(lp277
I10
aI20
aI35
asg11
(lp278
F-2.8015
aF-3.6211
aF-4.6396
asg13
I2
sbag2
(g3
g4
Ntp279
Rp280
(dp281
g8
I6
sg9
(lp282
I28
aI11
aI47
aI16
aI31
aI44
asg11
(lp283
F-4.0802
aF-3.0301
aF-6.5987
aF-3.3898
aF-4.2796
aF-6.0937
asg13
I3
sbag2
(g3
g4
Ntp284
Rp285
(dp286
g8
I4
sg9
(lp287
I5
aI41
aI15
aI42
asg11
(lp288
F-1.7203
aF-5.4571
aF-3.2121
aF-5.6517
asg13
I4
sbag2
(g3
g4
Ntp289
Rp290
(dp291
g8
I4
sg9
(lp292
I7
aI48
aI34
aI1
asg11
(lp293
F-2.438
aF-7.8135
aF-4.5895
aF-1.0812
asg13
I5
sbag2
(g3
g4
Ntp294
Rp295
(dp296
g8
I6
sg9
(lp297
I36
aI29
aI19
aI30
aI6
aI37
asg11
(lp298
F-4.8167
aF-4.2508
aF-3.6032
aF-4.2516
aF-2.4259
aF-4.9672
asg13
I6
sbag2
(g3
g4
Ntp299
Rp300
(dp301
g8
I5
sg9
(lp302
I14
aI33
aI8
aI40
aI18
asg11
(lp303
F-3.1869
aF-4.5412
aF-2.5235
aF-5.435
aF-3.5712
asg13
I7
sbag2
(g3
g4
Ntp304
Rp305
(dp306
g8
I6
sg9
(lp307
I27
aI39
aI38
aI32
aI13
aI23
asg11
(lp308
F-3.9985
aF-5.3464
aF-5.0671
aF-4.3805
aF-3.1723
aF-3.7727
asg13
I8
sbag2
(g3
g4
Ntp309
Rp310
(dp311
g8
I3
sg9
(lp312
I25
aI21
aI45
asg11
(lp313
F-3.9783
aF-3.6486
aF-6.4059
asg13
I9
sbaa(lp314
g2
(g3
g4
Ntp315
Rp316
(dp317
g8
I6
sg9
(lp318
I11
aI29
aI19
aI42
aI3
aI2
asg11
(lp319
F-2.7852
aF-4.1941
aF-3.5412
aF-5.3197
aF-1.4023
aF-0.5378
asg13
I0
sbag2
(g3
g4
Ntp320
Rp321
(dp322
g8
I4
sg9
(lp323
I10
aI35
aI12
aI28
asg11
(lp324
F-2.7617
aF-5.0155
aF-2.8173
aF-4.1283
asg13
I1
sbag2
(g3
g4
Ntp325
Rp326
(dp327
g8
I5
sg9
(lp328
I33
aI6
aI21
aI15
aI37
asg11
(lp329
F-4.5186
aF-2.2648
aF-3.5966
aF-3.1152
aF-5.1003
asg13
I2
sbag2
(g3
g4
Ntp330
Rp331
(dp332
g8
I6
sg9
(lp333
I23
aI14
aI32
aI41
aI31
aI16
asg11
(lp334
F-3.6106
aF-2.9305
aF-4.4935
aF-5.2571
aF-4.4438
aF-3.5118
asg13
I3
sbag2
(g3
g4
Ntp335
Rp336
(dp337
g8
I5
sg9
(lp338
I9
aI4
aI7
aI24
aI50
asg11
(lp339
F-2.6062
aF-1.9928
aF-2.3076
aF-3.8
aF-6.8718
asg13
I4
sbag2
(g3
g4
Ntp340
Rp341
(dp342
g8
I5
sg9
(lp343
I34
aI1
aI43
aI8
aI44
asg11
(lp344
F-4.5566
aF-0.52609
aF-5.348
aF-2.4073
aF-5.4343
asg13
I5
sbag2
(g3
g4
Ntp345
Rp346
(dp347
g8
I5
sg9
(lp348
I49
aI18
aI17
aI47
aI38
asg11
(lp349
F-6.1719
aF-3.5284
aF-3.5168
aF-5.9037
aF-5.1065
asg13
I6
sbag2
(g3
g4
Ntp350
Rp351
(dp352
g8
I5
sg9
(lp353
I36
aI40
aI20
aI26
aI45
asg11
(lp354
F-5.0299
aF-5.2083
aF-3.5596
aF-4.0807
aF-5.531
asg13
I7
sbag2
(g3
g4
Ntp355
Rp356
(dp357
g8
I3
sg9
(lp358
I46
aI39
aI27
asg11
(lp359
F-5.7778
aF-5.1163
aF-4.1116
asg13
I8
sbag2
(g3
g4
Ntp360
Rp361
(dp362
g8
I6
sg9
(lp363
I13
aI22
aI48
aI5
aI25
aI30
asg11
(lp364
F-2.8259
aF-3.6011
aF-6.0303
aF-2.2457
aF-4.0111
aF-4.2959
asg13
I9
sbaa(lp365
g2
(g3
g4
Ntp366
Rp367
(dp368
g8
I3
sg9
(lp369
I6
aI9
aI11
asg11
(lp370
F-2.0724
aF-2.5774
aF-3.0117
asg13
I0
sbag2
(g3
g4
Ntp371
Rp372
(dp373
g8
I3
sg9
(lp374
I29
aI31
aI25
asg11
(lp375
F-4.5894
aF-4.6715
aF-4.3343
asg13
I1
sbag2
(g3
g4
Ntp376
Rp377
(dp378
g8
I4
sg9
(lp379
I21
aI13
aI28
aI35
asg11
(lp380
F-4.0797
aF-3.6223
aF-4.4725
aF-5.0586
asg13
I2
sbag2
(g3
g4
Ntp381
Rp382
(dp383
g8
I3
sg9
(lp384
I8
aI18
aI20
asg11
(lp385
F-2.548
aF-3.9679
aF-4.0357
asg13
I3
sbag2
(g3
g4
Ntp386
Rp387
(dp388
g8
I4
sg9
(lp389
I36
aI38
aI39
aI3
asg11
(lp390
F-5.1731
aF-6.2821
aF-7.2734
aF-1.8805
asg13
I4
sbag2
(g3
g4
Ntp391
Rp392
(dp393
g8
I4
sg9
(lp394
I33
aI40
aI37
aI23
asg11
(lp395
F-4.9035
aF-7.2892
aF-5.6759
aF-4.2065
asg13
I5
sbag2
(g3
g4
Ntp396
Rp397
(dp398
g8
I3
sg9
(lp399
I26
aI1
aI19
asg11
(lp400
F-4.4371
aF-0.54092
aF-3.9934
asg13
I6
sbag2
(g3
g4
Ntp401
Rp402
(dp403
g8
I6
sg9
(lp404
I16
aI32
aI24
aI22
aI34
aI10
asg11
(lp405
F-3.7999
aF-4.6814
aF-4.3215
aF-4.16
aF-5.0164
aF-2.8604
asg13
I7
sbag2
(g3
g4
Ntp406
Rp407
(dp408
g8
I6
sg9
(lp409
I15
aI12
aI4
aI7
aI5
aI30
asg11
(lp410
F-3.7994
aF-3.4274
aF-1.9321
aF-2.3299
aF-2.0542
aF-4.6292
asg13
I8
sbag2
(g3
g4
Ntp411
Rp412
(dp413
g8
I4
sg9
(lp414
I14
aI17
aI2
aI27
asg11
(lp415
F-3.7118
aF-3.8194
aF-1.6534
aF-4.4427
asg13
I9
sbaa(lp416
g2
(g3
g4
Ntp417
Rp418
(dp419
g8
I4
sg9
(lp420
I26
aI11
aI5
aI8
asg11
(lp421
F-4.2363
aF-2.4138
aF-1.6022
aF-1.7069
asg13
I0
sbag2
(g3
g4
Ntp422
Rp423
(dp424
g8
I4
sg9
(lp425
I31
aI30
aI37
aI42
asg11
(lp426
F-4.6155
aF-4.6061
aF-4.8258
aF-5.2788
asg13
I1
sbag2
(g3
g4
Ntp427
Rp428
(dp429
g8
I6
sg9
(lp430
I17
aI13
aI4
aI44
aI12
aI38
asg11
(lp431
F-3.085
aF-2.9047
aF-1.5575
aF-6.0765
aF-2.7644
aF-4.889
asg13
I2
sbag2
(g3
g4
Ntp432
Rp433
(dp434
g8
I3
sg9
(lp435
I28
aI41
aI47
asg11
(lp436
F-4.3738
aF-5.2094
aF-6.7564
asg13
I3
sbag2
(g3
g4
Ntp437
Rp438
(dp439
g8
I5
sg9
(lp440
I23
aI1
aI21
aI3
aI14
asg11
(lp441
F-3.88
aF0.12156
aF-3.5833
aF-1.2841
aF-2.9988
asg13
I4
sbag2
(g3
g4
Ntp442
Rp443
(dp444
g8
I5
sg9
(lp445
I20
aI27
aI32
aI18
aI35
asg11
(lp446
F-3.4435
aF-4.3627
aF-4.6416
aF-3.2473
aF-4.713
asg13
I5
sbag2
(g3
g4
Ntp447
Rp448
(dp449
g8
I6
sg9
(lp450
I2
aI25
aI33
aI15
aI36
aI46
asg11
(lp451
F-0.96548
aF-4.1822
aF-4.669
aF-2.9989
aF-4.773
aF-6.2197
asg13
I6
sbag2
(g3
g4
Ntp452
Rp453
(dp454
g8
I4
sg9
(lp455
I43
aI40
aI34
aI6
asg11
(lp456
F-5.4162
aF-5.0236
aF-4.6715
aF-1.6211
asg13
I7
sbag2
(g3
g4
Ntp457
Rp458
(dp459
g8
I5
sg9
(lp460
I16
aI29
aI22
aI39
aI24
asg11
(lp461
F-3.0591
aF-4.4157
aF-3.8694
aF-4.9124
aF-3.9513
asg13
I8
sbag2
(g3
g4
Ntp462
Rp463
(dp464
g8
I6
sg9
(lp465
I9
aI48
aI45
aI7
aI19
aI10
asg11
(lp466
F-1.8805
aF-7.1753
aF-6.1916
aF-1.6655
aF-3.4255
aF-2.2868
asg13
I9
sbaa(lp467
g2
(g3
g4
Ntp468
Rp469
(dp470
g8
I3
sg9
(lp471
I2
aI30
aI16
asg11
(lp472
F-1.2077
aF-4.6426
aF-3.3919
asg13
I0
sbag2
(g3
g4
Ntp473
Rp474
(dp475
g8
I4
sg9
(lp476
I25
aI19
aI24
aI12
asg11
(lp477
F-4.1823
aF-3.5334
aF-3.7852
aF-3.1538
asg13
I1
sbag2
(g3
g4
Ntp478
Rp479
(dp480
g8
I6
sg9
(lp481
I28
aI18
aI32
aI11
aI5
aI21
asg11
(lp482
F-4.3955
aF-3.4319
aF-4.6811
aF-3.1105
aF-2.1649
aF-3.6945
asg13
I2
sbag2
(g3
g4
Ntp483
Rp484
(dp485
g8
I6
sg9
(lp486
I17
aI36
aI38
aI42
aI13
aI37
asg11
(lp487
F-3.402
aF-5.465
aF-6.1757
aF-6.5893
aF-3.2359
aF-5.6683
asg13
I3
sbag2
(g3
g4
Ntp488
Rp489
(dp490
g8
I6
sg9
(lp491
I35
aI1
aI33
aI23
aI31
aI41
asg11
(lp492
F-5.4226
aF-1.1724
aF-4.9112
aF-3.7828
aF-4.6444
aF-6.576
asg13
I4
sbag2
(g3
g4
Ntp493
Rp494
(dp495
g8
I4
sg9
(lp496
I8
aI20
aI22
aI34
asg11
(lp497
F-2.5153
aF-3.6469
aF-3.7661
aF-4.9581
asg13
I5
sbag2
(g3
g4
Ntp498
Rp499
(dp500
g8
I4
sg9
(lp501
I14
aI6
aI43
aI9
asg11
(lp502
F-3.3085
aF-2.2291
aF-6.7698
aF-2.5502
asg13
I6
sbag2
(g3
g4
Ntp503
Rp504
(dp505
g8
I3
sg9
(lp506
I27
aI3
aI44
asg11
(lp507
F-4.2531
aF-1.2133
aF-7.0393
asg13
I7
sbag2
(g3
g4
Ntp508
Rp509
(dp510
g8
I3
sg9
(lp511
I39
aI4
aI10
asg11
(lp512
F-6.2058
aF-1.6754
aF-2.6175
asg13
I8
sbag2
(g3
g4
Ntp513
Rp514
(dp515
g8
I5
sg9
(lp516
I15
aI40
aI26
aI29
aI7
asg11
(lp517
F-3.3527
aF-6.4603
aF-4.22
aF-4.5621
aF-2.3506
asg13
I9
sbaa(lp518
g2
(g3
g4
Ntp519
Rp520
(dp521
g8
I3
sg9
(lp522
I2
aI35
aI3
asg11
(lp523
F-1.973
aF-5.1851
aF-1.9778
asg13
I0
sbag2
(g3
g4
Ntp524
Rp525
(dp526
g8
I4
sg9
(lp527
I42
aI26
aI43
aI4
asg11
(lp528
F-5.9445
aF-4.3197
aF-5.9726
aF-2.1348
asg13
I1
sbag2
(g3
g4
Ntp529
Rp530
(dp531
g8
I4
sg9
(lp532
I40
aI15
aI10
aI24
asg11
(lp533
F-5.8623
aF-2.9689
aF-2.6971
aF-4.1189
asg13
I2
sbag2
(g3
g4
Ntp534
Rp535
(dp536
g8
I6
sg9
(lp537
I32
aI38
aI19
aI25
aI44
aI14
asg11
(lp538
F-4.8358
aF-5.6384
aF-3.4866
aF-4.2096
aF-6.2744
aF-2.9226
asg13
I3
sbag2
(g3
g4
Ntp539
Rp540
(dp541
g8
I3
sg9
(lp542
I1
aI5
aI31
asg11
(lp543
F-1.3289
aF-2.2312
aF-4.622
asg13
I4
sbag2
(g3
g4
Ntp544
Rp545
(dp546
g8
I4
sg9
(lp547
I20
aI34
aI37
aI7
asg11
(lp548
F-3.5562
aF-5.128
aF-5.4227
aF-2.5251
asg13
I5
sbag2
(g3
g4
Ntp549
Rp550
(dp551
g8
I6
sg9
(lp552
I36
aI13
aI8
aI22
aI39
aI16
asg11
(lp553
F-5.3252
aF-2.8671
aF-2.5662
aF-3.5911
aF-5.8239
aF-3.0013
asg13
I6
sbag2
(g3
g4
Ntp554
Rp555
(dp556
g8
I4
sg9
(lp557
I18
aI6
aI9
aI29
asg11
(lp558
F-3.4546
aF-2.2979
aF-2.596
aF-4.4947
asg13
I7
sbag2
(g3
g4
Ntp559
Rp560
(dp561
g8
I6
sg9
(lp562
I28
aI27
aI11
aI17
aI30
aI12
asg11
(lp563
F-4.4629
aF-4.4204
aF-2.7298
aF-3.1004
aF-4.51
aF-2.7637
asg13
I8
sbag2
(g3
g4
Ntp564
Rp565
(dp566
g8
I4
sg9
(lp567
I21
aI41
aI33
aI23
asg11
(lp568
F-3.5804
aF-5.8847
aF-5.0152
aF-4.0044
asg13
I9
sbaa(lp569
g2
(g3
g4
Ntp570
Rp571
(dp572
g8
I6
sg9
(lp573
I27
aI18
aI48
aI11
aI1
aI13
asg11
(lp574
F-4.1193
aF-3.3727
aF-7.4605
aF-2.7194
aF-1.1754
aF-2.8789
asg13
I0
sbag2
(g3
g4
Ntp575
Rp576
(dp577
g8
I4
sg9
(lp578
I31
aI23
aI28
aI41
asg11
(lp579
F-4.5829
aF-3.7575
aF-4.1513
aF-5.5411
asg13
I1
sbag2
(g3
g4
Ntp580
Rp581
(dp582
g8
I4
sg9
(lp583
I38
aI33
aI2
aI5
asg11
(lp584
F-5.1909
aF-4.6665
aF-1.3858
aF-1.9942
asg13
I2
sbag2
(g3
g4
Ntp585
Rp586
(dp587
g8
I4
sg9
(lp588
I24
aI4
aI47
aI21
asg11
(lp589
F-3.8851
aF-1.9139
aF-6.7921
aF-3.621
asg13
I3
sbag2
(g3
g4
Ntp590
Rp591
(dp592
g8
I6
sg9
(lp593
I17
aI16
aI32
aI26
aI36
aI7
asg11
(lp594
F-3.3419
aF-3.1128
aF-4.6054
aF-4.117
aF-4.8529
aF-2.1602
asg13
I4
sbag2
(g3
g4
Ntp595
Rp596
(dp597
g8
I5
sg9
(lp598
I43
aI12
aI29
aI8
aI6
asg11
(lp599
F-5.9156
aF-2.781
aF-4.48
aF-2.2793
aF-2.0633
asg13
I5
sbag2
(g3
g4
Ntp600
Rp601
(dp602
g8
I5
sg9
(lp603
I34
aI37
aI40
aI35
aI39
asg11
(lp604
F-4.835
aF-5.085
aF-5.3673
aF-4.851
aF-5.2107
asg13
I6
sbag2
(g3
g4
Ntp605
Rp606
(dp607
g8
I3
sg9
(lp608
I14
aI19
aI44
asg11
(lp609
F-2.8966
aF-3.4004
aF-6.2483
asg13
I7
sbag2
(g3
g4
Ntp610
Rp611
(dp612
g8
I5
sg9
(lp613
I9
aI20
aI42
aI45
aI10
asg11
(lp614
F-2.3076
aF-3.4707
aF-5.838
aF-6.375
aF-2.7049
asg13
I8
sbag2
(g3
g4
Ntp615
Rp616
(dp617
g8
I6
sg9
(lp618
I25
aI3
aI15
aI30
aI46
aI22
asg11
(lp619
F-3.9681
aF-1.8607
aF-3.1056
aF-4.4943
aF-6.6802
aF-3.7061
asg13
I9
sbaa(lp620
g2
(g3
g4
Ntp621
Rp622
(dp623
g8
I5
sg9
(lp624
I34
aI27
aI17
aI18
aI5
asg11
(lp625
F-5.119
aF-4.4296
aF-3.5594
aF-3.7505
aF-2.7209
asg13
I0
sbag2
(g3
g4
Ntp626
Rp627
(dp628
g8
I3
sg9
(lp629
I30
aI9
aI21
asg11
(lp630
F-4.9814
aF-2.8895
aF-3.9414
asg13
I1
sbag2
(g3
g4
Ntp631
Rp632
(dp633
g8
I6
sg9
(lp634
I37
aI22
aI1
aI13
aI14
aI31
asg11
(lp635
F-5.3248
aF-4.009
aF0.12213
aF-3.2863
aF-3.3367
aF-5.0256
asg13
I2
sbag2
(g3
g4
Ntp636
Rp637
(dp638
g8
I3
sg9
(lp639
I41
aI6
aI33
asg11
(lp640
F-6.1635
aF-2.7895
aF-5.1112
asg13
I3
sbag2
(g3
g4
Ntp641
Rp642
(dp643
g8
I3
sg9
(lp644
I26
aI23
aI35
asg11
(lp645
F-4.4129
aF-4.2105
aF-5.2241
asg13
I4
sbag2
(g3
g4
Ntp646
Rp647
(dp648
g8
I3
sg9
(lp649
I11
aI36
aI29
asg11
(lp650
F-2.9263
aF-5.3102
aF-4.6855
asg13
I5
sbag2
(g3
g4
Ntp651
Rp652
(dp653
g8
I5
sg9
(lp654
I3
aI10
aI4
aI25
aI2
asg11
(lp655
F-1.642
aF-2.8908
aF-2.0816
aF-4.2401
aF-0.67863
asg13
I6
sbag2
(g3
g4
Ntp656
Rp657
(dp658
g8
I4
sg9
(lp659
I16
aI7
aI20
aI12
asg11
(lp660
F-3.4982
aF-2.8627
aF-3.8093
aF-3.1171
asg13
I7
sbag2
(g3
g4
Ntp661
Rp662
(dp663
g8
I5
sg9
(lp664
I15
aI28
aI38
aI24
aI8
asg11
(lp665
F-3.4218
aF-4.6279
aF-5.6834
aF-4.2317
aF-2.8882
asg13
I8
sbag2
(g3
g4
Ntp666
Rp667
(dp668
g8
I4
sg9
(lp669
I40
aI39
aI32
aI19
asg11
(lp670
F-6.1063
aF-5.7427
aF-5.0442
aF-3.7563
asg13
I9
sbaa(lp671
g2
(g3
g4
Ntp672
Rp673
(dp674
g8
I5
sg9
(lp675
I3
aI23
aI10
aI29
aI12
asg11
(lp676
F-1.3141
aF-3.6004
aF-2.7015
aF-4.7543
aF-2.8048
asg13
I0
sbag2
(g3
g4
Ntp677
Rp678
(dp679
g8
I5
sg9
(lp680
I31
aI16
aI9
aI34
aI38
asg11
(lp681
F-5.0668
aF-2.8517
aF-2.6761
aF-5.6035
aF-6.2021
asg13
I1
sbag2
(g3
g4
Ntp682
Rp683
(dp684
g8
I4
sg9
(lp685
I25
aI2
aI33
aI18
asg11
(lp686
F-4.226
aF-1.0825
aF-5.2067
aF-2.969
asg13
I2
sbag2
(g3
g4
Ntp687
Rp688
(dp689
g8
I4
sg9
(lp690
I28
aI32
aI8
aI5
asg11
(lp691
F-4.6224
aF-5.1778
aF-2.2221
aF-1.7943
asg13
I3
sbag2
(g3
g4
Ntp692
Rp693
(dp694
g8
I4
sg9
(lp695
I37
aI6
aI39
aI19
asg11
(lp696
F-6.088
aF-2.0157
aF-6.3007
aF-3.0644
asg13
I4
sbag2
(g3
g4
Ntp697
Rp698
(dp699
g8
I4
sg9
(lp700
I35
aI15
aI20
aI36
asg11
(lp701
F-5.6104
aF-2.8499
aF-3.0653
aF-5.7758
asg13
I5
sbag2
(g3
g4
Ntp702
Rp703
(dp704
g8
I5
sg9
(lp705
I11
aI17
aI24
aI7
aI43
asg11
(lp706
F-2.7674
aF-2.8769
aF-3.9406
aF-2.1127
aF-8.4778
asg13
I6
sbag2
(g3
g4
Ntp707
Rp708
(dp709
g8
I4
sg9
(lp710
I30
aI21
aI27
aI4
asg11
(lp711
F-5.0181
aF-3.1176
aF-4.3467
aF-1.5668
asg13
I7
sbag2
(g3
g4
Ntp712
Rp713
(dp714
g8
I5
sg9
(lp715
I1
aI40
aI42
aI14
aI13
asg11
(lp716
F0.17339
aF-6.6176
aF-7.0552
aF-2.8394
aF-2.8107
asg13
I8
sbag2
(g3
g4
Ntp717
Rp718
(dp719
g8
I3
sg9
(lp720
I22
aI26
aI41
asg11
(lp721
F-3.1999
aF-4.324
aF-6.8004
asg13
I9
sbaa(lp722
g2
(g3
g4
Ntp723
Rp724
(dp725
g8
I3
sg9
(lp726
I11
aI8
aI39
asg11
(lp727
F-2.79
aF-2.4122
aF-6.2011
asg13
I0
sbag2
(g3
g4
Ntp728
Rp729
(dp730
g8
I3
sg9
(lp731
I12
aI28
aI9
asg11
(lp732
F-3.0634
aF-4.9692
aF-2.4932
asg13
I1
sbag2
(g3
g4
Ntp733
Rp734
(dp735
g8
I6
sg9
(lp736
I24
aI35
aI19
aI3
aI23
aI27
asg11
(lp737
F-4.3094
aF-5.3009
aF-3.8475
aF-0.13965
aF-4.1518
aF-4.8867
asg13
I2
sbag2
(g3
g4
Ntp738
Rp739
(dp740
g8
I4
sg9
(lp741
I5
aI20
aI7
aI36
asg11
(lp742
F-1.9315
aF-3.9315
aF-2.1337
aF-5.5088
asg13
I3
sbag2
(g3
g4
Ntp743
Rp744
(dp745
g8
I6
sg9
(lp746
I15
aI17
aI33
aI43
aI42
aI4
asg11
(lp747
F-3.6287
aF-3.7551
aF-5.2925
aF-6.9814
aF-6.7141
aF-1.2106
asg13
I4
sbag2
(g3
g4
Ntp748
Rp749
(dp750
g8
I4
sg9
(lp751
I13
aI10
aI26
aI21
asg11
(lp752
F-3.2846
aF-2.6247
aF-4.8649
aF-3.9405
asg13
I5
sbag2
(g3
g4
Ntp753
Rp754
(dp755
g8
I3
sg9
(lp756
I41
aI29
aI31
asg11
(lp757
F-6.4898
aF-4.9763
aF-5.1019
asg13
I6
sbag2
(g3
g4
Ntp758
Rp759
(dp760
g8
I6
sg9
(lp761
I30
aI16
aI2
aI18
aI1
aI37
asg11
(lp762
F-5.0159
aF-3.6414
aF-0.11965
aF-3.8099
aF0.16976
aF-5.8099
asg13
I7
sbag2
(g3
g4
Ntp763
Rp764
(dp765
g8
I3
sg9
(lp766
I6
aI25
aI22
asg11
(lp767
F-1.954
aF-4.4248
aF-3.98
asg13
I8
sbag2
(g3
g4
Ntp768
Rp769
(dp770
g8
I5
sg9
(lp771
I14
aI40
aI38
aI32
aI34
asg11
(lp772
F-3.3129
aF-6.4646
aF-5.998
aF-5.1515
aF-5.2942
asg13
I9
sbaa.