(lp0
(lp1
ccopy_reg
_reconstructor
p2
(ctrial
OptionResult
p3
c__builtin__
object
p4
Ntp5
Rp6
(dp7
S'expected_counts'
p8
I6
sS'sort_positions'
p9
(lp10
I21
aI4
aI7
aI33
aI1
aI2
asS'eegs'
p11
(lp12
F-4.6963e-10
aF-8.895e-11
aF-1.973e-10
aF-6.3741e-10
aF3.2246e-11
aF-1.3624e-11
asS'idx'
p13
I0
sbag2
(g3
g4
Ntp14
Rp15
(dp16
g8
I4
sg9
(lp17
I23
aI15
aI26
aI36
asg11
(lp18
F-4.8747e-10
aF-3.6199e-10
aF-5.7559e-10
aF-6.9553e-10
asg13
I1
sbag2
(g3
g4
Ntp19
Rp20
(dp21
g8
I4
sg9
(lp22
I50
aI3
aI40
aI31
asg11
(lp23
F-9.8103e-10
aF-1.5129e-11
aF-7.1315e-10
aF-6.1859e-10
asg13
I2
sbag2
(g3
g4
Ntp24
Rp25
(dp26
g8
I3
sg9
(lp27
I47
aI16
aI37
asg11
(lp28
F-8.8519e-10
aF-3.92e-10
aF-6.968e-10
asg13
I3
sbag2
(g3
g4
Ntp29
Rp30
(dp31
g8
I5
sg9
(lp32
I43
aI29
aI39
aI20
aI51
asg11
(lp33
F-7.7749e-10
aF-6.0374e-10
aF-7.0829e-10
aF-4.6263e-10
aF-1.0998e-09
asg13
I4
sbag2
(g3
g4
Ntp34
Rp35
(dp36
g8
I6
sg9
(lp37
I17
aI46
aI8
aI18
aI45
aI5
asg11
(lp38
F-4.1167e-10
aF-8.8186e-10
aF-2.3436e-10
aF-4.2776e-10
aF-8.4169e-10
aF-1.0592e-10
asg13
I5
sbag2
(g3
g4
Ntp39
Rp40
(dp41
g8
I5
sg9
(lp42
I34
aI49
aI6
aI14
aI11
asg11
(lp43
F-6.4901e-10
aF-9.3267e-10
aF-1.9672e-10
aF-3.5689e-10
aF-3.0095e-10
asg13
I6
sbag2
(g3
g4
Ntp44
Rp45
(dp46
g8
I6
sg9
(lp47
I42
aI35
aI24
aI48
aI19
aI22
asg11
(lp48
F-7.6419e-10
aF-6.8116e-10
aF-5.2958e-10
aF-9.0807e-10
aF-4.5671e-10
aF-4.8618e-10
asg13
I7
sbag2
(g3
g4
Ntp49
Rp50
(dp51
g8
I6
sg9
(lp52
I25
aI27
aI9
aI44
aI38
aI30
asg11
(lp53
F-5.5042e-10
aF-5.803e-10
aF-2.755e-10
aF-8.0771e-10
aF-7.0159e-10
aF-6.0759e-10
asg13
I8
sbag2
(g3
g4
Ntp54
Rp55
(dp56
g8
I6
sg9
(lp57
I10
aI12
aI41
aI28
aI13
aI32
asg11
(lp58
F-2.9583e-10
aF-3.0141e-10
aF-7.4273e-10
aF-5.8859e-10
aF-3.4146e-10
aF-6.2022e-10
asg13
I9
sbaa(lp59
g2
(g3
g4
Ntp60
Rp61
(dp62
g8
I4
sg9
(lp63
I1
aI18
aI10
aI7
asg11
(lp64
F2.3968e-10
aF-5.0977e-10
aF-2.885e-10
aF-2.1026e-10
asg13
I0
sbag2
(g3
g4
Ntp65
Rp66
(dp67
g8
I6
sg9
(lp68
I28
aI6
aI30
aI11
aI21
aI35
asg11
(lp69
F-6.4613e-10
aF-1.8198e-10
aF-7.041e-10
aF-3.2447e-10
aF-5.5795e-10
aF-8.797e-10
asg13
I1
sbag2
(g3
g4
Ntp70
Rp71
(dp72
g8
I5
sg9
(lp73
I2
aI32
aI23
aI3
aI17
asg11
(lp74
F9.5156e-11
aF-7.1681e-10
aF-5.8477e-10
aF1.2862e-11
aF-4.9455e-10
asg13
I2
sbag2
(g3
g4
Ntp75
Rp76
(dp77
g8
I4
sg9
(lp78
I14
aI8
aI38
aI12
asg11
(lp79
F-4.5571e-10
aF-2.716e-10
aF-9.4215e-10
aF-3.2824e-10
asg13
I3
sbag2
(g3
g4
Ntp80
Rp81
(dp82
g8
I4
sg9
(lp83
I40
aI26
aI22
aI27
asg11
(lp84
F-1.0871e-09
aF-6.1618e-10
aF-5.8082e-10
aF-6.444e-10
asg13
I4
sbag2
(g3
g4
Ntp85
Rp86
(dp87
g8
I4
sg9
(lp88
I29
aI33
aI25
aI15
asg11
(lp89
F-6.9539e-10
aF-7.2216e-10
aF-5.8524e-10
aF-4.6419e-10
asg13
I5
sbag2
(g3
g4
Ntp90
Rp91
(dp92
g8
I5
sg9
(lp93
I42
aI31
aI19
aI9
aI34
asg11
(lp94
F-1.1804e-09
aF-7.0654e-10
aF-5.4435e-10
aF-2.723e-10
aF-8.4883e-10
asg13
I6
sbag2
(g3
g4
Ntp95
Rp96
(dp97
g8
I4
sg9
(lp98
I24
aI13
aI5
aI37
asg11
(lp99
F-5.8493e-10
aF-3.5251e-10
aF-1.0838e-10
aF-8.9447e-10
asg13
I7
sbag2
(g3
g4
Ntp100
Rp101
(dp102
g8
I3
sg9
(lp103
I4
aI41
aI16
asg11
(lp104
F-7.6814e-11
aF-1.1239e-09
aF-4.7642e-10
asg13
I8
sbag2
(g3
g4
Ntp105
Rp106
(dp107
g8
I3
sg9
(lp108
I36
aI20
aI39
asg11
(lp109
F-8.8552e-10
aF-5.4505e-10
aF-9.7361e-10
asg13
I9
sbaa(lp110
g2
(g3
g4
Ntp111
Rp112
(dp113
g8
I4
sg9
(lp114
I2
aI5
aI4
aI18
asg11
(lp115
F2.1029e-10
aF-1.1166e-10
aF-9.8131e-11
aF-4.4428e-10
asg13
I0
sbag2
(g3
g4
Ntp116
Rp117
(dp118
g8
I4
sg9
(lp119
I1
aI22
aI26
aI10
asg11
(lp120
F2.1515e-10
aF-4.784e-10
aF-6.0384e-10
aF-3.5115e-10
asg13
I1
sbag2
(g3
g4
Ntp121
Rp122
(dp123
g8
I3
sg9
(lp124
I37
aI13
aI7
asg11
(lp125
F-7.7379e-10
aF-3.7703e-10
aF-2.7927e-10
asg13
I2
sbag2
(g3
g4
Ntp126
Rp127
(dp128
g8
I3
sg9
(lp129
I9
aI30
aI15
asg11
(lp130
F-3.4257e-10
aF-6.4861e-10
aF-4.049e-10
asg13
I3
sbag2
(g3
g4
Ntp131
Rp132
(dp133
g8
I3
sg9
(lp134
I43
aI27
aI6
asg11
(lp135
F-1.0861e-09
aF-6.0417e-10
aF-1.6189e-10
asg13
I4
sbag2
(g3
g4
Ntp136
Rp137
(dp138
g8
I4
sg9
(lp139
I44
aI20
aI25
aI36
asg11
(lp140
F-1.4459e-09
aF-4.5648e-10
aF-5.8261e-10
aF-7.6636e-10
asg13
I5
sbag2
(g3
g4
Ntp141
Rp142
(dp143
g8
I6
sg9
(lp144
I40
aI12
aI31
aI19
aI39
aI32
asg11
(lp145
F-8.9173e-10
aF-3.7651e-10
aF-7.1055e-10
aF-4.5361e-10
aF-8.8076e-10
aF-7.3815e-10
asg13
I6
sbag2
(g3
g4
Ntp146
Rp147
(dp148
g8
I6
sg9
(lp149
I8
aI35
aI23
aI34
aI33
aI41
asg11
(lp150
F-2.9151e-10
aF-7.6578e-10
aF-4.9389e-10
aF-7.606e-10
aF-7.4453e-10
aF-9.1404e-10
asg13
I7
sbag2
(g3
g4
Ntp151
Rp152
(dp153
g8
I5
sg9
(lp154
I28
aI17
aI42
aI29
aI3
asg11
(lp155
F-6.0932e-10
aF-4.4322e-10
aF-9.6349e-10
aF-6.1631e-10
aF-7.0607e-11
asg13
I8
sbag2
(g3
g4
Ntp156
Rp157
(dp158
g8
I6
sg9
(lp159
I14
aI24
aI21
aI11
aI38
aI16
asg11
(lp160
F-4.0284e-10
aF-5.5845e-10
aF-4.7689e-10
aF-3.7262e-10
aF-8.4385e-10
aF-4.3706e-10
asg13
I9
sbaa(lp161
g2
(g3
g4
Ntp162
Rp163
(dp164
g8
I4
sg9
(lp165
I6
aI7
aI13
aI2
asg11
(lp166
F-1.2024e-10
aF-1.6648e-10
aF-4.4557e-10
aF1.7303e-10
asg13
I0
sbag2
(g3
g4
Ntp167
Rp168
(dp169
g8
I5
sg9
(lp170
I14
aI31
aI29
aI15
aI25
asg11
(lp171
F-4.7569e-10
aF-7.5392e-10
aF-7.4518e-10
aF-4.8289e-10
aF-7.0009e-10
asg13
I1
sbag2
(g3
g4
Ntp172
Rp173
(dp174
g8
I3
sg9
(lp175
I9
aI35
aI4
asg11
(lp176
F-2.7434e-10
aF-9.0814e-10
aF1.7365e-11
asg13
I2
sbag2
(g3
g4
Ntp177
Rp178
(dp179
g8
I3
sg9
(lp180
I20
aI22
aI17
asg11
(lp181
F-6.2435e-10
aF-6.5582e-10
aF-5.1775e-10
asg13
I3
sbag2
(g3
g4
Ntp182
Rp183
(dp184
g8
I5
sg9
(lp185
I27
aI3
aI19
aI16
aI34
asg11
(lp186
F-7.228e-10
aF2.8198e-11
aF-5.3242e-10
aF-5.1179e-10
aF-7.8734e-10
asg13
I4
sbag2
(g3
g4
Ntp187
Rp188
(dp189
g8
I5
sg9
(lp190
I8
aI1
aI11
aI32
aI5
asg11
(lp191
F-1.8784e-10
aF3.5436e-10
aF-3.4917e-10
aF-7.7536e-10
aF-6.0473e-11
asg13
I5
sbag2
(g3
g4
Ntp192
Rp193
(dp194
g8
I3
sg9
(lp195
I26
aI36
aI12
asg11
(lp196
F-7.1576e-10
aF-1.1106e-09
aF-4.3983e-10
asg13
I6
sbag2
(g3
g4
Ntp197
Rp198
(dp199
g8
I3
sg9
(lp200
I37
aI28
aI30
asg11
(lp201
F-1.1422e-09
aF-7.4166e-10
aF-7.5155e-10
asg13
I7
sbag2
(g3
g4
Ntp202
Rp203
(dp204
g8
I3
sg9
(lp205
I33
aI18
aI24
asg11
(lp206
F-7.8541e-10
aF-5.3216e-10
aF-6.9956e-10
asg13
I8
sbag2
(g3
g4
Ntp207
Rp208
(dp209
g8
I3
sg9
(lp210
I10
aI21
aI23
asg11
(lp211
F-3.4605e-10
aF-6.3265e-10
aF-6.8272e-10
asg13
I9
sbaa(lp212
g2
(g3
g4
Ntp213
Rp214
(dp215
g8
I3
sg9
(lp216
I2
aI18
aI43
asg11
(lp217
F1.6456e-10
aF-4.3014e-10
aF-9.9331e-10
asg13
I0
sbag2
(g3
g4
Ntp218
Rp219
(dp220
g8
I3
sg9
(lp221
I26
aI13
aI3
asg11
(lp222
F-5.6226e-10
aF-3.5722e-10
aF-2.868e-11
asg13
I1
sbag2
(g3
g4
Ntp223
Rp224
(dp225
g8
I3
sg9
(lp226
I4
aI33
aI29
asg11
(lp227
F-1.2243e-10
aF-7.0655e-10
aF-6.007e-10
asg13
I2
sbag2
(g3
g4
Ntp228
Rp229
(dp230
g8
I5
sg9
(lp231
I10
aI5
aI32
aI11
aI37
asg11
(lp232
F-3.2368e-10
aF-1.8504e-10
aF-7.0023e-10
aF-3.2818e-10
aF-8.3482e-10
asg13
I3
sbag2
(g3
g4
Ntp233
Rp234
(dp235
g8
I5
sg9
(lp236
I42
aI12
aI35
aI41
aI6
asg11
(lp237
F-9.6926e-10
aF-3.5572e-10
aF-8.0063e-10
aF-9.1711e-10
aF-2.1691e-10
asg13
I4
sbag2
(g3
g4
Ntp238
Rp239
(dp240
g8
I5
sg9
(lp241
I31
aI20
aI23
aI22
aI39
asg11
(lp242
F-6.9146e-10
aF-4.8602e-10
aF-5.1972e-10
aF-5.1838e-10
aF-8.5849e-10
asg13
I5
sbag2
(g3
g4
Ntp243
Rp244
(dp245
g8
I5
sg9
(lp246
I38
aI16
aI7
aI15
aI21
asg11
(lp247
F-8.3816e-10
aF-4.0982e-10
aF-2.3915e-10
aF-4.0431e-10
aF-5.1131e-10
asg13
I6
sbag2
(g3
g4
Ntp248
Rp249
(dp250
g8
I6
sg9
(lp251
I1
aI40
aI25
aI14
aI24
aI34
asg11
(lp252
F1.6704e-10
aF-8.6897e-10
aF-5.5559e-10
aF-3.9071e-10
aF-5.4982e-10
aF-7.0965e-10
asg13
I7
sbag2
(g3
g4
Ntp253
Rp254
(dp255
g8
I4
sg9
(lp256
I36
aI17
aI9
aI27
asg11
(lp257
F-8.3159e-10
aF-4.1606e-10
aF-3.115e-10
aF-5.719e-10
asg13
I8
sbag2
(g3
g4
Ntp258
Rp259
(dp260
g8
I6
sg9
(lp261
I45
aI30
aI44
aI28
aI8
aI19
asg11
(lp262
F-1.2708e-09
aF-6.2792e-10
aF-1.2676e-09
aF-5.8726e-10
aF-2.7808e-10
aF-4.6476e-10
asg13
I9
sbaa(lp263
g2
(g3
g4
Ntp264
Rp265
(dp266
g8
I4
sg9
(lp267
I9
aI27
aI4
aI8
asg11
(lp268
F-3.1298e-10
aF-6.6799e-10
aF-1.7359e-10
aF-3.0565e-10
asg13
I0
sbag2
(g3
g4
Ntp269
Rp270
(dp271
g8
I5
sg9
(lp272
I33
aI11
aI23
aI36
aI21
asg11
(lp273
F-7.488e-10
aF-3.6829e-10
aF-5.909e-10
aF-8.2749e-10
aF-5.3423e-10
asg13
I1
sbag2
(g3
g4
Ntp274
Rp275
(dp276
g8
I3
sg9
(lp277
I25
aI28
aI37
asg11
(lp278
F-6.1033e-10
aF-6.8286e-10
aF-8.629e-10
asg13
I2
sbag2
(g3
g4
Ntp279
Rp280
(dp281
g8
I5
sg9
(lp282
I35
aI42
aI7
aI22
aI12
asg11
(lp283
F-7.5502e-10
aF-9.4328e-10
aF-3.0179e-10
aF-5.8258e-10
aF-3.9016e-10
asg13
I3
sbag2
(g3
g4
Ntp284
Rp285
(dp286
g8
I4
sg9
(lp287
I40
aI10
aI19
aI31
asg11
(lp288
F-9.2549e-10
aF-3.3829e-10
aF-5.2126e-10
aF-6.9469e-10
asg13
I4
sbag2
(g3
g4
Ntp289
Rp290
(dp291
g8
I5
sg9
(lp292
I16
aI1
aI41
aI39
aI34
asg11
(lp293
F-4.9556e-10
aF2.7184e-10
aF-9.396e-10
aF-8.9531e-10
aF-7.5168e-10
asg13
I5
sbag2
(g3
g4
Ntp294
Rp295
(dp296
g8
I3
sg9
(lp297
I38
aI30
aI29
asg11
(lp298
F-8.7126e-10
aF-6.886e-10
aF-6.842e-10
asg13
I6
sbag2
(g3
g4
Ntp299
Rp300
(dp301
g8
I6
sg9
(lp302
I13
aI3
aI6
aI17
aI14
aI5
asg11
(lp303
F-4.4556e-10
aF-1.4933e-10
aF-2.9754e-10
aF-5.0221e-10
aF-4.7539e-10
aF-2.38e-10
asg13
I7
sbag2
(g3
g4
Ntp304
Rp305
(dp306
g8
I4
sg9
(lp307
I15
aI32
aI24
aI26
asg11
(lp308
F-4.8872e-10
aF-6.9989e-10
aF-6.0027e-10
aF-6.5505e-10
asg13
I8
sbag2
(g3
g4
Ntp309
Rp310
(dp311
g8
I3
sg9
(lp312
I2
aI18
aI20
asg11
(lp313
F-1.2269e-10
aF-5.0839e-10
aF-5.226e-10
asg13
I9
sbaa(lp314
g2
(g3
g4
Ntp315
Rp316
(dp317
g8
I5
sg9
(lp318
I41
aI1
aI13
aI7
aI12
asg11
(lp319
F-9.5765e-10
aF3.3391e-10
aF-3.4312e-10
aF-3.2285e-11
aF-3.1231e-10
asg13
I0
sbag2
(g3
g4
Ntp320
Rp321
(dp322
g8
I4
sg9
(lp323
I29
aI8
aI9
aI35
asg11
(lp324
F-7.3253e-10
aF-9.1563e-11
aF-1.2154e-10
aF-8.1974e-10
asg13
I1
sbag2
(g3
g4
Ntp325
Rp326
(dp327
g8
I6
sg9
(lp328
I38
aI3
aI14
aI31
aI33
aI18
asg11
(lp329
F-8.4239e-10
aF1.3207e-10
aF-3.6689e-10
aF-7.6601e-10
aF-7.7046e-10
aF-4.8692e-10
asg13
I2
sbag2
(g3
g4
Ntp330
Rp331
(dp332
g8
I4
sg9
(lp333
I5
aI39
aI37
aI10
asg11
(lp334
F6.5883e-11
aF-8.8104e-10
aF-8.3872e-10
aF-1.2689e-10
asg13
I3
sbag2
(g3
g4
Ntp335
Rp336
(dp337
g8
I6
sg9
(lp338
I19
aI28
aI21
aI44
aI22
aI16
asg11
(lp339
F-4.9905e-10
aF-6.934e-10
aF-5.5975e-10
aF-1.1753e-09
aF-5.7784e-10
aF-4.1691e-10
asg13
I4
sbag2
(g3
g4
Ntp340
Rp341
(dp342
g8
I3
sg9
(lp343
I27
aI32
aI17
asg11
(lp344
F-6.7744e-10
aF-7.7025e-10
aF-4.5709e-10
asg13
I5
sbag2
(g3
g4
Ntp345
Rp346
(dp347
g8
I5
sg9
(lp348
I43
aI42
aI34
aI24
aI26
asg11
(lp349
F-1.055e-09
aF-9.8379e-10
aF-7.9094e-10
aF-6.3315e-10
aF-6.767e-10
asg13
I6
sbag2
(g3
g4
Ntp350
Rp351
(dp352
g8
I3
sg9
(lp353
I11
aI4
aI20
asg11
(lp354
F-3.0515e-10
aF8.4603e-11
aF-5.5172e-10
asg13
I7
sbag2
(g3
g4
Ntp355
Rp356
(dp357
g8
I3
sg9
(lp358
I40
aI2
aI36
asg11
(lp359
F-9.2237e-10
aF1.7255e-10
aF-8.3173e-10
asg13
I8
sbag2
(g3
g4
Ntp360
Rp361
(dp362
g8
I5
sg9
(lp363
I6
aI30
aI25
aI23
aI15
asg11
(lp364
F-1.5976e-11
aF-7.3493e-10
aF-6.5739e-10
aF-5.8496e-10
aF-3.987e-10
asg13
I9
sbaa.