(lp0
(lp1
ccopy_reg
_reconstructor
p2
(ctrial
OptionResult
p3
c__builtin__
object
p4
Ntp5
Rp6
(dp7
S'expected_counts'
p8
I3
sS'sort_positions'
p9
(lp10
I38
aI4
aI17
asS'eegs'
p11
(lp12
F-8.2073e-10
aF-2.1335e-10
aF-4.6755e-10
asS'idx'
p13
I0
sbag2
(g3
g4
Ntp14
Rp15
(dp16
g8
I6
sg9
(lp17
I25
aI16
aI3
aI22
aI35
aI28
asg11
(lp18
F-5.4155e-10
aF-4.6091e-10
aF-2.0407e-10
aF-5.0697e-10
aF-7.2571e-10
aF-5.5638e-10
asg13
I1
sbag2
(g3
g4
Ntp19
Rp20
(dp21
g8
I4
sg9
(lp22
I27
aI14
aI18
aI30
asg11
(lp23
F-5.5037e-10
aF-4.4542e-10
aF-4.7079e-10
aF-5.7509e-10
asg13
I2
sbag2
(g3
g4
Ntp24
Rp25
(dp26
g8
I4
sg9
(lp27
I19
aI23
aI32
aI34
asg11
(lp28
F-4.774e-10
aF-5.1996e-10
aF-6.4897e-10
aF-7.2256e-10
asg13
I3
sbag2
(g3
g4
Ntp29
Rp30
(dp31
g8
I5
sg9
(lp32
I24
aI10
aI31
aI11
aI8
asg11
(lp33
F-5.3587e-10
aF-4.0796e-10
aF-5.8989e-10
aF-4.2155e-10
aF-2.7533e-10
asg13
I4
sbag2
(g3
g4
Ntp34
Rp35
(dp36
g8
I4
sg9
(lp37
I29
aI1
aI21
aI41
asg11
(lp38
F-5.7302e-10
aF-1.8939e-11
aF-4.9969e-10
aF-1.0742e-09
asg13
I5
sbag2
(g3
g4
Ntp39
Rp40
(dp41
g8
I4
sg9
(lp42
I39
aI13
aI9
aI2
asg11
(lp43
F-8.3794e-10
aF-4.3728e-10
aF-2.7868e-10
aF-3.428e-11
asg13
I6
sbag2
(g3
g4
Ntp44
Rp45
(dp46
g8
I3
sg9
(lp47
I5
aI12
aI7
asg11
(lp48
F-2.1986e-10
aF-4.3476e-10
aF-2.6525e-10
asg13
I7
sbag2
(g3
g4
Ntp49
Rp50
(dp51
g8
I4
sg9
(lp52
I26
aI6
aI37
aI20
asg11
(lp53
F-5.4833e-10
aF-2.4779e-10
aF-8.0158e-10
aF-4.8512e-10
asg13
I8
sbag2
(g3
g4
Ntp54
Rp55
(dp56
g8
I4
sg9
(lp57
I40
aI33
aI15
aI36
asg11
(lp58
F-9.2363e-10
aF-6.872e-10
aF-4.522e-10
aF-7.9367e-10
asg13
I9
sbaa(lp59
g2
(g3
g4
Ntp60
Rp61
(dp62
g8
I3
sg9
(lp63
I2
aI20
aI1
asg11
(lp64
F-4.3619e-11
aF-5.586e-10
aF3.7082e-10
asg13
I0
sbag2
(g3
g4
Ntp65
Rp66
(dp67
g8
I6
sg9
(lp68
I41
aI21
aI42
aI27
aI22
aI25
asg11
(lp69
F-8.9479e-10
aF-5.7442e-10
aF-9.3202e-10
aF-6.2939e-10
aF-5.7748e-10
aF-6.0685e-10
asg13
I1
sbag2
(g3
g4
Ntp70
Rp71
(dp72
g8
I3
sg9
(lp73
I39
aI38
aI4
asg11
(lp74
F-8.2282e-10
aF-8.1345e-10
aF-1.3046e-10
asg13
I2
sbag2
(g3
g4
Ntp75
Rp76
(dp77
g8
I4
sg9
(lp78
I24
aI13
aI10
aI36
asg11
(lp79
F-5.9718e-10
aF-3.1226e-10
aF-2.9116e-10
aF-7.694e-10
asg13
I3
sbag2
(g3
g4
Ntp80
Rp81
(dp82
g8
I5
sg9
(lp83
I43
aI3
aI8
aI40
aI5
asg11
(lp84
F-9.5762e-10
aF-1.1642e-10
aF-2.6134e-10
aF-8.2567e-10
aF-1.6086e-10
asg13
I4
sbag2
(g3
g4
Ntp85
Rp86
(dp87
g8
I6
sg9
(lp88
I29
aI19
aI18
aI30
aI44
aI33
asg11
(lp89
F-6.9964e-10
aF-5.1354e-10
aF-5.1004e-10
aF-7.0587e-10
aF-1.0756e-09
aF-7.3608e-10
asg13
I5
sbag2
(g3
g4
Ntp90
Rp91
(dp92
g8
I6
sg9
(lp93
I16
aI7
aI35
aI17
aI9
aI23
asg11
(lp94
F-3.9055e-10
aF-2.4969e-10
aF-7.568e-10
aF-4.8469e-10
aF-2.8796e-10
aF-5.9103e-10
asg13
I6
sbag2
(g3
g4
Ntp95
Rp96
(dp97
g8
I3
sg9
(lp98
I14
aI6
aI15
asg11
(lp99
F-3.6507e-10
aF-2.1938e-10
aF-3.8293e-10
asg13
I7
sbag2
(g3
g4
Ntp100
Rp101
(dp102
g8
I4
sg9
(lp103
I28
aI11
aI12
aI31
asg11
(lp104
F-6.6707e-10
aF-3.1025e-10
aF-3.1042e-10
aF-7.1708e-10
asg13
I8
sbag2
(g3
g4
Ntp105
Rp106
(dp107
g8
I4
sg9
(lp108
I26
aI34
aI32
aI37
asg11
(lp109
F-6.2096e-10
aF-7.4237e-10
aF-7.2317e-10
aF-7.9186e-10
asg13
I9
sbaa(lp110
g2
(g3
g4
Ntp111
Rp112
(dp113
g8
I6
sg9
(lp114
I28
aI5
aI3
aI43
aI1
aI36
asg11
(lp115
F-6.4313e-10
aF6.0669e-12
aF1.3386e-10
aF-9.6721e-10
aF7.0008e-10
aF-7.9354e-10
asg13
I0
sbag2
(g3
g4
Ntp116
Rp117
(dp118
g8
I6
sg9
(lp119
I9
aI14
aI35
aI16
aI17
aI31
asg11
(lp120
F-1.8904e-10
aF-3.8165e-10
aF-7.5199e-10
aF-4.089e-10
aF-4.1975e-10
aF-6.645e-10
asg13
I1
sbag2
(g3
g4
Ntp121
Rp122
(dp123
g8
I6
sg9
(lp124
I46
aI40
aI13
aI39
aI22
aI33
asg11
(lp125
F-1.3303e-09
aF-9.0451e-10
aF-3.8045e-10
aF-8.9858e-10
aF-5.4195e-10
aF-7.1478e-10
asg13
I2
sbag2
(g3
g4
Ntp126
Rp127
(dp128
g8
I3
sg9
(lp129
I6
aI32
aI29
asg11
(lp130
F-5.0024e-11
aF-6.7795e-10
aF-6.4538e-10
asg13
I3
sbag2
(g3
g4
Ntp131
Rp132
(dp133
g8
I3
sg9
(lp134
I23
aI10
aI11
asg11
(lp135
F-5.4506e-10
aF-3.265e-10
aF-3.4785e-10
asg13
I4
sbag2
(g3
g4
Ntp136
Rp137
(dp138
g8
I3
sg9
(lp139
I4
aI26
aI41
asg11
(lp140
F1.3106e-10
aF-5.6618e-10
aF-9.1801e-10
asg13
I5
sbag2
(g3
g4
Ntp141
Rp142
(dp143
g8
I6
sg9
(lp144
I38
aI20
aI7
aI8
aI44
aI12
asg11
(lp145
F-8.914e-10
aF-4.9967e-10
aF-1.3664e-10
aF-1.5226e-10
aF-1.0226e-09
aF-3.694e-10
asg13
I6
sbag2
(g3
g4
Ntp146
Rp147
(dp148
g8
I4
sg9
(lp149
I30
aI2
aI34
aI27
asg11
(lp150
F-6.5156e-10
aF1.445e-10
aF-7.1653e-10
aF-6.1351e-10
asg13
I7
sbag2
(g3
g4
Ntp151
Rp152
(dp153
g8
I3
sg9
(lp154
I37
aI24
aI25
asg11
(lp155
F-8.4483e-10
aF-5.4532e-10
aF-5.4546e-10
asg13
I8
sbag2
(g3
g4
Ntp156
Rp157
(dp158
g8
I6
sg9
(lp159
I45
aI42
aI19
aI15
aI21
aI18
asg11
(lp160
F-1.3102e-09
aF-9.2105e-10
aF-4.8402e-10
aF-3.875e-10
aF-5.0858e-10
aF-4.259e-10
asg13
I9
sbaa(lp161
g2
(g3
g4
Ntp162
Rp163
(dp164
g8
I5
sg9
(lp165
I13
aI1
aI4
aI21
aI36
asg11
(lp166
F-2.651e-10
aF3.193e-10
aF1.5973e-10
aF-4.7315e-10
aF-7.5289e-10
asg13
I0
sbag2
(g3
g4
Ntp167
Rp168
(dp169
g8
I5
sg9
(lp170
I17
aI35
aI41
aI46
aI16
asg11
(lp171
F-3.4794e-10
aF-7.498e-10
aF-7.959e-10
aF-9.4679e-10
aF-3.3581e-10
asg13
I1
sbag2
(g3
g4
Ntp172
Rp173
(dp174
g8
I5
sg9
(lp175
I49
aI42
aI44
aI25
aI5
asg11
(lp176
F-1.3083e-09
aF-8.0194e-10
aF-9.2251e-10
aF-5.4235e-10
aF4.8838e-11
asg13
I2
sbag2
(g3
g4
Ntp177
Rp178
(dp179
g8
I6
sg9
(lp180
I6
aI9
aI27
aI34
aI43
aI45
asg11
(lp181
F-8.4784e-12
aF-2.0465e-10
aF-5.6235e-10
aF-7.1596e-10
aF-8.2753e-10
aF-9.2993e-10
asg13
I3
sbag2
(g3
g4
Ntp182
Rp183
(dp184
g8
I5
sg9
(lp185
I29
aI31
aI14
aI12
aI30
asg11
(lp186
F-6.3131e-10
aF-6.7839e-10
aF-3.206e-10
aF-2.617e-10
aF-6.7277e-10
asg13
I4
sbag2
(g3
g4
Ntp187
Rp188
(dp189
g8
I6
sg9
(lp190
I19
aI22
aI38
aI32
aI47
aI15
asg11
(lp191
F-4.4946e-10
aF-4.7469e-10
aF-7.6287e-10
aF-6.8125e-10
aF-1.0102e-09
aF-3.3414e-10
asg13
I5
sbag2
(g3
g4
Ntp192
Rp193
(dp194
g8
I3
sg9
(lp195
I8
aI33
aI24
asg11
(lp196
F-7.4048e-11
aF-6.9893e-10
aF-5.2825e-10
asg13
I6
sbag2
(g3
g4
Ntp197
Rp198
(dp199
g8
I5
sg9
(lp200
I10
aI3
aI7
aI37
aI28
asg11
(lp201
F-2.08e-10
aF2.0046e-10
aF-6.6268e-11
aF-7.6224e-10
aF-5.9275e-10
asg13
I7
sbag2
(g3
g4
Ntp202
Rp203
(dp204
g8
I6
sg9
(lp205
I48
aI20
aI23
aI26
aI11
aI40
asg11
(lp206
F-1.1709e-09
aF-4.5871e-10
aF-5.2492e-10
aF-5.5525e-10
aF-2.1072e-10
aF-7.9541e-10
asg13
I8
sbag2
(g3
g4
Ntp207
Rp208
(dp209
g8
I3
sg9
(lp210
I39
aI18
aI2
asg11
(lp211
F-7.7834e-10
aF-4.4736e-10
aF2.3751e-10
asg13
I9
sbaa(lp212
g2
(g3
g4
Ntp213
Rp214
(dp215
g8
I3
sg9
(lp216
I8
aI38
aI2
asg11
(lp217
F-2.1165e-10
aF-8.0752e-10
aF1.7508e-10
asg13
I0
sbag2
(g3
g4
Ntp218
Rp219
(dp220
g8
I6
sg9
(lp221
I1
aI35
aI39
aI6
aI11
aI23
asg11
(lp222
F3.7632e-10
aF-6.8979e-10
aF-8.1473e-10
aF-1.088e-10
aF-3.5881e-10
aF-5.4159e-10
asg13
I1
sbag2
(g3
g4
Ntp223
Rp224
(dp225
g8
I6
sg9
(lp226
I4
aI42
aI32
aI46
aI12
aI31
asg11
(lp227
F4.4644e-11
aF-9.7942e-10
aF-6.7101e-10
aF-1.1745e-09
aF-3.8319e-10
aF-6.5616e-10
asg13
I2
sbag2
(g3
g4
Ntp228
Rp229
(dp230
g8
I3
sg9
(lp231
I10
aI3
aI27
asg11
(lp232
F-2.4536e-10
aF1.4202e-10
aF-5.8522e-10
asg13
I3
sbag2
(g3
g4
Ntp233
Rp234
(dp235
g8
I6
sg9
(lp236
I47
aI34
aI28
aI22
aI30
aI14
asg11
(lp237
F-1.1944e-09
aF-6.7882e-10
aF-5.8867e-10
aF-5.2676e-10
aF-6.0192e-10
aF-4.3643e-10
asg13
I4
sbag2
(g3
g4
Ntp238
Rp239
(dp240
g8
I4
sg9
(lp241
I37
aI33
aI45
aI43
asg11
(lp242
F-7.7759e-10
aF-6.7196e-10
aF-1.0788e-09
aF-9.9626e-10
asg13
I5
sbag2
(g3
g4
Ntp243
Rp244
(dp245
g8
I5
sg9
(lp246
I40
aI5
aI7
aI41
aI36
asg11
(lp247
F-8.3626e-10
aF-1.6985e-11
aF-1.8188e-10
aF-8.8943e-10
aF-7.1228e-10
asg13
I6
sbag2
(g3
g4
Ntp248
Rp249
(dp250
g8
I5
sg9
(lp251
I24
aI17
aI15
aI13
aI21
asg11
(lp252
F-5.5544e-10
aF-4.6098e-10
aF-4.5514e-10
aF-3.9131e-10
aF-5.2579e-10
asg13
I7
sbag2
(g3
g4
Ntp253
Rp254
(dp255
g8
I4
sg9
(lp256
I44
aI29
aI9
aI19
asg11
(lp257
F-1.0675e-09
aF-5.9679e-10
aF-2.2312e-10
aF-4.761e-10
asg13
I8
sbag2
(g3
g4
Ntp258
Rp259
(dp260
g8
I5
sg9
(lp261
I20
aI26
aI16
aI18
aI25
asg11
(lp262
F-4.9193e-10
aF-5.7503e-10
aF-4.6019e-10
aF-4.6204e-10
aF-5.7225e-10
asg13
I9
sbaa(lp263
g2
(g3
g4
Ntp264
Rp265
(dp266
g8
I6
sg9
(lp267
I3
aI2
aI7
aI4
aI9
aI1
asg11
(lp268
F2.0619e-11
aF2.4675e-10
aF-2.2057e-10
aF-4.477e-11
aF-2.4209e-10
aF3.5804e-10
asg13
I0
sbag2
(g3
g4
Ntp269
Rp270
(dp271
g8
I5
sg9
(lp272
I15
aI6
aI30
aI42
aI35
asg11
(lp273
F-4.0198e-10
aF-1.4329e-10
aF-6.1621e-10
aF-8.36e-10
aF-7.3572e-10
asg13
I1
sbag2
(g3
g4
Ntp274
Rp275
(dp276
g8
I5
sg9
(lp277
I13
aI8
aI24
aI21
aI40
asg11
(lp278
F-3.1533e-10
aF-2.3869e-10
aF-5.3676e-10
aF-4.6131e-10
aF-8.154e-10
asg13
I2
sbag2
(g3
g4
Ntp279
Rp280
(dp281
g8
I4
sg9
(lp282
I12
aI31
aI32
aI10
asg11
(lp283
F-2.7002e-10
aF-6.4814e-10
aF-7.0749e-10
aF-2.653e-10
asg13
I3
sbag2
(g3
g4
Ntp284
Rp285
(dp286
g8
I6
sg9
(lp287
I49
aI16
aI11
aI29
aI28
aI41
asg11
(lp288
F-1.2027e-09
aF-4.1587e-10
aF-2.6939e-10
aF-5.9529e-10
aF-5.8425e-10
aF-8.2293e-10
asg13
I4
sbag2
(g3
g4
Ntp289
Rp290
(dp291
g8
I5
sg9
(lp292
I19
aI36
aI5
aI48
aI14
asg11
(lp293
F-4.4259e-10
aF-7.6553e-10
aF-1.0246e-10
aF-1.1722e-09
aF-3.9133e-10
asg13
I5
sbag2
(g3
g4
Ntp294
Rp295
(dp296
g8
I5
sg9
(lp297
I37
aI33
aI43
aI50
aI34
asg11
(lp298
F-7.6629e-10
aF-7.121e-10
aF-8.45e-10
aF-1.5499e-09
aF-7.3328e-10
asg13
I6
sbag2
(g3
g4
Ntp299
Rp300
(dp301
g8
I6
sg9
(lp302
I38
aI27
aI23
aI18
aI22
aI20
asg11
(lp303
F-8.0844e-10
aF-5.8189e-10
aF-5.1818e-10
aF-4.3429e-10
aF-4.7171e-10
aF-4.5202e-10
asg13
I7
sbag2
(g3
g4
Ntp304
Rp305
(dp306
g8
I5
sg9
(lp307
I46
aI39
aI17
aI45
aI25
asg11
(lp308
F-9.369e-10
aF-8.1144e-10
aF-4.1725e-10
aF-9.2877e-10
aF-5.4657e-10
asg13
I8
sbag2
(g3
g4
Ntp309
Rp310
(dp311
g8
I3
sg9
(lp312
I44
aI47
aI26
asg11
(lp313
F-9.1278e-10
aF-9.499e-10
aF-5.6712e-10
asg13
I9
sbaa.