(lp0
(lp1
ccopy_reg
_reconstructor
p2
(ctrial
OptionResult
p3
c__builtin__
object
p4
Ntp5
Rp6
(dp7
S'expected_counts'
p8
I3
sS'sort_positions'
p9
(lp10
I42
aI12
aI11
asS'eegs'
p11
(lp12
F-1.1414e-09
aF-3.1366e-10
aF-3.0311e-10
asS'idx'
p13
I0
sbag2
(g3
g4
Ntp14
Rp15
(dp16
g8
I3
sg9
(lp17
I21
aI34
aI6
asg11
(lp18
F-4.8007e-10
aF-7.2973e-10
aF-2.2693e-10
asg13
I1
sbag2
(g3
g4
Ntp19
Rp20
(dp21
g8
I3
sg9
(lp22
I19
aI30
aI3
asg11
(lp23
F-4.6803e-10
aF-6.2385e-10
aF-1.1485e-10
asg13
I2
sbag2
(g3
g4
Ntp24
Rp25
(dp26
g8
I6
sg9
(lp27
I33
aI17
aI9
aI8
aI36
aI31
asg11
(lp28
F-6.9822e-10
aF-4.1122e-10
aF-2.9165e-10
aF-2.7713e-10
aF-8.0431e-10
aF-6.3681e-10
asg13
I3
sbag2
(g3
g4
Ntp29
Rp30
(dp31
g8
I5
sg9
(lp32
I37
aI27
aI26
aI38
aI40
asg11
(lp33
F-8.4228e-10
aF-5.5471e-10
aF-5.5193e-10
aF-8.5021e-10
aF-1.0902e-09
asg13
I4
sbag2
(g3
g4
Ntp34
Rp35
(dp36
g8
I6
sg9
(lp37
I18
aI24
aI14
aI5
aI4
aI32
asg11
(lp38
F-4.4939e-10
aF-5.2279e-10
aF-3.8136e-10
aF-1.9275e-10
aF-1.7033e-10
aF-6.8891e-10
asg13
I5
sbag2
(g3
g4
Ntp39
Rp40
(dp41
g8
I3
sg9
(lp42
I28
aI2
aI35
asg11
(lp43
F-5.6191e-10
aF2.5782e-11
aF-7.3329e-10
asg13
I6
sbag2
(g3
g4
Ntp44
Rp45
(dp46
g8
I4
sg9
(lp47
I1
aI23
aI13
aI16
asg11
(lp48
F4.5563e-10
aF-5.1237e-10
aF-3.5369e-10
aF-3.8928e-10
asg13
I7
sbag2
(g3
g4
Ntp49
Rp50
(dp51
g8
I4
sg9
(lp52
I25
aI41
aI39
aI7
asg11
(lp53
F-5.3685e-10
aF-1.0938e-09
aF-1.0257e-09
aF-2.4317e-10
asg13
I8
sbag2
(g3
g4
Ntp54
Rp55
(dp56
g8
I5
sg9
(lp57
I10
aI20
aI29
aI22
aI15
asg11
(lp58
F-2.9872e-10
aF-4.7292e-10
aF-5.639e-10
aF-5.0558e-10
aF-3.8678e-10
asg13
I9
sbaa(lp59
g2
(g3
g4
Ntp60
Rp61
(dp62
g8
I4
sg9
(lp63
I22
aI3
aI10
aI34
asg11
(lp64
F-5.5056e-10
aF-1.6681e-11
aF-3.0059e-10
aF-8.3309e-10
asg13
I0
sbag2
(g3
g4
Ntp65
Rp66
(dp67
g8
I5
sg9
(lp68
I29
aI13
aI14
aI11
aI8
asg11
(lp69
F-6.9571e-10
aF-3.6057e-10
aF-3.692e-10
aF-3.3329e-10
aF-2.547e-10
asg13
I1
sbag2
(g3
g4
Ntp70
Rp71
(dp72
g8
I3
sg9
(lp73
I1
aI25
aI42
asg11
(lp74
F2.5525e-10
aF-5.795e-10
aF-1.1121e-09
asg13
I2
sbag2
(g3
g4
Ntp75
Rp76
(dp77
g8
I5
sg9
(lp78
I33
aI5
aI24
aI26
aI30
asg11
(lp79
F-8.2667e-10
aF-1.5794e-10
aF-5.5984e-10
aF-6.3738e-10
aF-7.8362e-10
asg13
I3
sbag2
(g3
g4
Ntp80
Rp81
(dp82
g8
I3
sg9
(lp83
I4
aI16
aI20
asg11
(lp84
F-1.2431e-10
aF-4.0846e-10
aF-5.211e-10
asg13
I4
sbag2
(g3
g4
Ntp85
Rp86
(dp87
g8
I4
sg9
(lp88
I40
aI12
aI39
aI7
asg11
(lp89
F-8.9487e-10
aF-3.4975e-10
aF-8.7527e-10
aF-1.9555e-10
asg13
I5
sbag2
(g3
g4
Ntp90
Rp91
(dp92
g8
I5
sg9
(lp93
I27
aI21
aI35
aI18
aI28
asg11
(lp94
F-6.6602e-10
aF-5.3661e-10
aF-8.3906e-10
aF-5.0966e-10
aF-6.9236e-10
asg13
I6
sbag2
(g3
g4
Ntp95
Rp96
(dp97
g8
I4
sg9
(lp98
I31
aI2
aI19
aI37
asg11
(lp99
F-7.9434e-10
aF1.5459e-10
aF-5.1089e-10
aF-8.415e-10
asg13
I7
sbag2
(g3
g4
Ntp100
Rp101
(dp102
g8
I6
sg9
(lp103
I38
aI17
aI23
aI41
aI36
aI9
asg11
(lp104
F-8.5798e-10
aF-4.3242e-10
aF-5.5526e-10
aF-9.8762e-10
aF-8.3993e-10
aF-2.7921e-10
asg13
I8
sbag2
(g3
g4
Ntp105
Rp106
(dp107
g8
I3
sg9
(lp108
I15
aI6
aI32
asg11
(lp109
F-3.7043e-10
aF-1.7824e-10
aF-8.1128e-10
asg13
I9
sbaa(lp110
g2
(g3
g4
Ntp111
Rp112
(dp113
g8
I6
sg9
(lp114
I4
aI2
aI1
aI9
aI37
aI18
asg11
(lp115
F7.2437e-12
aF4.8117e-11
aF1.6578e-10
aF-1.7543e-10
aF-9.0135e-10
aF-4.2343e-10
asg13
I0
sbag2
(g3
g4
Ntp116
Rp117
(dp118
g8
I6
sg9
(lp119
I42
aI8
aI24
aI22
aI34
aI3
asg11
(lp120
F-1.1279e-09
aF-1.6337e-10
aF-5.2781e-10
aF-5.1127e-10
aF-8.0274e-10
aF4.5584e-11
asg13
I1
sbag2
(g3
g4
Ntp121
Rp122
(dp123
g8
I4
sg9
(lp124
I40
aI5
aI38
aI35
asg11
(lp125
F-9.6806e-10
aF-1.1455e-10
aF-9.0706e-10
aF-8.624e-10
asg13
I2
sbag2
(g3
g4
Ntp126
Rp127
(dp128
g8
I6
sg9
(lp129
I44
aI31
aI7
aI25
aI16
aI12
asg11
(lp130
F-1.2981e-09
aF-6.3532e-10
aF-1.5673e-10
aF-5.3846e-10
aF-3.7825e-10
aF-3.4407e-10
asg13
I3
sbag2
(g3
g4
Ntp131
Rp132
(dp133
g8
I3
sg9
(lp134
I14
aI17
aI26
asg11
(lp135
F-3.7173e-10
aF-4.0714e-10
aF-5.4223e-10
asg13
I4
sbag2
(g3
g4
Ntp136
Rp137
(dp138
g8
I3
sg9
(lp139
I33
aI28
aI39
asg11
(lp140
F-7.7523e-10
aF-5.8232e-10
aF-9.4964e-10
asg13
I5
sbag2
(g3
g4
Ntp141
Rp142
(dp143
g8
I3
sg9
(lp144
I27
aI13
aI10
asg11
(lp145
F-5.4708e-10
aF-3.6342e-10
aF-2.1824e-10
asg13
I6
sbag2
(g3
g4
Ntp146
Rp147
(dp148
g8
I5
sg9
(lp149
I41
aI36
aI19
aI43
aI21
asg11
(lp150
F-1.019e-09
aF-8.7593e-10
aF-4.2785e-10
aF-1.2362e-09
aF-4.7721e-10
asg13
I7
sbag2
(g3
g4
Ntp151
Rp152
(dp153
g8
I3
sg9
(lp154
I23
aI29
aI15
asg11
(lp155
F-5.1483e-10
aF-5.84e-10
aF-3.7751e-10
asg13
I8
sbag2
(g3
g4
Ntp156
Rp157
(dp158
g8
I5
sg9
(lp159
I30
aI32
aI11
aI6
aI20
asg11
(lp160
F-6.2846e-10
aF-6.7096e-10
aF-3.4033e-10
aF-1.3457e-10
aF-4.6446e-10
asg13
I9
sbaa(lp161
g2
(g3
g4
Ntp162
Rp163
(dp164
g8
I4
sg9
(lp165
I1
aI3
aI2
aI9
asg11
(lp166
F1.4904e-10
aF7.4499e-11
aF1.0039e-10
aF-2.1425e-10
asg13
I0
sbag2
(g3
g4
Ntp167
Rp168
(dp169
g8
I6
sg9
(lp170
I39
aI12
aI16
aI14
aI5
aI4
asg11
(lp171
F-9.4239e-10
aF-2.5025e-10
aF-4.0576e-10
aF-3.79e-10
aF-1.458e-10
aF-6.2432e-11
asg13
I1
sbag2
(g3
g4
Ntp172
Rp173
(dp174
g8
I6
sg9
(lp175
I42
aI8
aI15
aI24
aI13
aI44
asg11
(lp176
F-1.0682e-09
aF-1.9622e-10
aF-3.9917e-10
aF-5.2344e-10
aF-3.118e-10
aF-1.1277e-09
asg13
I2
sbag2
(g3
g4
Ntp177
Rp178
(dp179
g8
I4
sg9
(lp180
I34
aI26
aI41
aI7
asg11
(lp181
F-8.1384e-10
aF-5.5865e-10
aF-1.01e-09
aF-1.8155e-10
asg13
I3
sbag2
(g3
g4
Ntp182
Rp183
(dp184
g8
I4
sg9
(lp185
I43
aI35
aI38
aI6
asg11
(lp186
F-1.1232e-09
aF-8.4437e-10
aF-9.3143e-10
aF-1.5548e-10
asg13
I4
sbag2
(g3
g4
Ntp187
Rp188
(dp189
g8
I4
sg9
(lp190
I33
aI18
aI40
aI11
asg11
(lp191
F-7.5942e-10
aF-4.2798e-10
aF-9.5525e-10
aF-2.3919e-10
asg13
I5
sbag2
(g3
g4
Ntp192
Rp193
(dp194
g8
I4
sg9
(lp195
I17
aI28
aI22
aI31
asg11
(lp196
F-4.2641e-10
aF-6.457e-10
aF-4.8801e-10
aF-6.8286e-10
asg13
I6
sbag2
(g3
g4
Ntp197
Rp198
(dp199
g8
I6
sg9
(lp200
I29
aI36
aI45
aI21
aI23
aI30
asg11
(lp201
F-6.4886e-10
aF-8.6996e-10
aF-1.219e-09
aF-4.7286e-10
aF-5.0312e-10
aF-6.6659e-10
asg13
I7
sbag2
(g3
g4
Ntp202
Rp203
(dp204
g8
I3
sg9
(lp205
I10
aI20
aI37
asg11
(lp206
F-2.2332e-10
aF-4.4635e-10
aF-9.0779e-10
asg13
I8
sbag2
(g3
g4
Ntp207
Rp208
(dp209
g8
I4
sg9
(lp210
I19
aI25
aI27
aI32
asg11
(lp211
F-4.3113e-10
aF-5.258e-10
aF-5.7592e-10
aF-7.1438e-10
asg13
I9
sbaa(lp212
g2
(g3
g4
Ntp213
Rp214
(dp215
g8
I3
sg9
(lp216
I2
aI5
aI31
asg11
(lp217
F1.9117e-10
aF-1.0562e-10
aF-6.4743e-10
asg13
I0
sbag2
(g3
g4
Ntp218
Rp219
(dp220
g8
I6
sg9
(lp221
I40
aI29
aI17
aI1
aI23
aI28
asg11
(lp222
F-7.7134e-10
aF-6.3465e-10
aF-3.7925e-10
aF3.9347e-10
aF-5.2707e-10
aF-6.2678e-10
asg13
I1
sbag2
(g3
g4
Ntp223
Rp224
(dp225
g8
I6
sg9
(lp226
I43
aI24
aI41
aI47
aI12
aI22
asg11
(lp227
F-8.2066e-10
aF-5.8893e-10
aF-7.7577e-10
aF-9.7287e-10
aF-2.8312e-10
aF-5.1055e-10
asg13
I2
sbag2
(g3
g4
Ntp228
Rp229
(dp230
g8
I6
sg9
(lp231
I15
aI39
aI7
aI4
aI14
aI21
asg11
(lp232
F-3.502e-10
aF-7.7105e-10
aF-1.8493e-10
aF-5.3398e-11
aF-3.3981e-10
aF-4.6768e-10
asg13
I3
sbag2
(g3
g4
Ntp233
Rp234
(dp235
g8
I6
sg9
(lp236
I8
aI30
aI50
aI34
aI9
aI10
asg11
(lp237
F-1.8894e-10
aF-6.4358e-10
aF-1.2453e-09
aF-7.0124e-10
aF-1.9902e-10
aF-2.1433e-10
asg13
I4
sbag2
(g3
g4
Ntp238
Rp239
(dp240
g8
I5
sg9
(lp241
I36
aI45
aI46
aI44
aI3
asg11
(lp242
F-7.2485e-10
aF-9.2613e-10
aF-9.2677e-10
aF-8.4919e-10
aF4.81e-11
asg13
I5
sbag2
(g3
g4
Ntp243
Rp244
(dp245
g8
I5
sg9
(lp246
I19
aI6
aI25
aI26
aI13
asg11
(lp247
F-4.1631e-10
aF-1.6509e-10
aF-5.9469e-10
aF-5.9482e-10
aF-3.2263e-10
asg13
I6
sbag2
(g3
g4
Ntp248
Rp249
(dp250
g8
I3
sg9
(lp251
I37
aI33
aI20
asg11
(lp252
F-7.3149e-10
aF-6.8177e-10
aF-4.3227e-10
asg13
I7
sbag2
(g3
g4
Ntp253
Rp254
(dp255
g8
I5
sg9
(lp256
I32
aI49
aI42
aI48
aI38
asg11
(lp257
F-6.636e-10
aF-1.1871e-09
aF-7.7911e-10
aF-1.0446e-09
aF-7.4594e-10
asg13
I8
sbag2
(g3
g4
Ntp258
Rp259
(dp260
g8
I5
sg9
(lp261
I27
aI16
aI35
aI18
aI11
asg11
(lp262
F-6.0699e-10
aF-3.5906e-10
aF-7.2069e-10
aF-3.9133e-10
aF-2.6301e-10
asg13
I9
sbaa.