(lp0
(lp1
ccopy_reg
_reconstructor
p2
(ctrial
OptionResult
p3
c__builtin__
object
p4
Ntp5
Rp6
(dp7
S'expected_counts'
p8
I3
sS'sort_positions'
p9
(lp10
I29
aI39
aI17
asS'eegs'
p11
(lp12
F-4.4755
aF-5.651
aF-3.7315
asS'idx'
p13
I0
sbag2
(g3
g4
Ntp14
Rp15
(dp16
g8
I6
sg9
(lp17
I9
aI46
aI40
aI19
aI6
aI32
asg11
(lp18
F-2.8056
aF-6.6697
aF-5.9091
aF-3.8976
aF-1.8566
aF-5.0543
asg13
I1
sbag2
(g3
g4
Ntp19
Rp20
(dp21
g8
I6
sg9
(lp22
I13
aI16
aI4
aI8
aI14
aI3
asg11
(lp23
F-3.1861
aF-3.4255
aF-1.4802
aF-2.6992
aF-3.2499
aF-1.4671
asg13
I2
sbag2
(g3
g4
Ntp24
Rp25
(dp26
g8
I3
sg9
(lp27
I34
aI44
aI10
asg11
(lp28
F-5.2268
aF-6.3852
aF-2.9915
asg13
I3
sbag2
(g3
g4
Ntp29
Rp30
(dp31
g8
I6
sg9
(lp32
I36
aI41
aI28
aI25
aI31
aI22
asg11
(lp33
F-5.3422
aF-5.9664
aF-4.3188
aF-4.1206
aF-4.9684
aF-4.0437
asg13
I4
sbag2
(g3
g4
Ntp34
Rp35
(dp36
g8
I3
sg9
(lp37
I37
aI1
aI45
asg11
(lp38
F-5.3768
aF0.67019
aF-6.638
asg13
I5
sbag2
(g3
g4
Ntp39
Rp40
(dp41
g8
I4
sg9
(lp42
I43
aI2
aI5
aI42
asg11
(lp43
F-6.3349
aF-1.4069
aF-1.7278
aF-6.2911
asg13
I6
sbag2
(g3
g4
Ntp44
Rp45
(dp46
g8
I5
sg9
(lp47
I20
aI23
aI30
aI12
aI24
asg11
(lp48
F-3.9829
aF-4.0486
aF-4.866
aF-3.1482
aF-4.0745
asg13
I7
sbag2
(g3
g4
Ntp49
Rp50
(dp51
g8
I6
sg9
(lp52
I21
aI11
aI15
aI7
aI35
aI33
asg11
(lp53
F-4.0068
aF-3.0752
aF-3.2891
aF-2.6886
aF-5.3028
aF-5.1936
asg13
I8
sbag2
(g3
g4
Ntp54
Rp55
(dp56
g8
I4
sg9
(lp57
I27
aI38
aI18
aI26
asg11
(lp58
F-4.1924
aF-5.5416
aF-3.8129
aF-4.126
asg13
I9
sbaa(lp59
g2
(g3
g4
Ntp60
Rp61
(dp62
g8
I5
sg9
(lp63
I16
aI2
aI21
aI17
asg11
(lp64
F-3.7322
aF-1.5177
aF-4.1859
aF-3.9492
asg13
I0
sbag2
(g3
g4
Ntp65
Rp66
(dp67
g8
I4
sg9
(lp68
I22
aI20
aI35
aI24
asg11
(lp69
F-4.3158
aF-4.1187
aF-5.2938
aF-4.4584
asg13
I1
sbag2
(g3
g4
Ntp70
Rp71
(dp72
g8
I3
sg9
(lp73
I7
aI33
aI41
asg11
(lp74
F-3.1115
aF-5.096
aF-6.0566
asg13
I2
sbag2
(g3
g4
Ntp75
Rp76
(dp77
g8
I5
sg9
(lp78
I36
aI14
aI9
aI30
aI18
asg11
(lp79
F-5.3775
aF-3.4776
aF-3.17
aF-4.9776
aF-3.9523
asg13
I3
sbag2
(g3
g4
Ntp80
Rp81
(dp82
g8
I4
sg9
(lp83
I3
aI31
aI6
aI39
asg11
(lp84
F-2.1766
aF-5.0426
aF-3.0809
aF-5.875
asg13
I4
sbag2
(g3
g4
Ntp85
Rp86
(dp87
g8
I6
sg9
(lp88
I40
aI11
aI32
aI12
aI1
aI37
asg11
(lp89
F-6.0061
aF-3.2803
aF-5.0895
aF-3.3713
aF-0.38897
aF-5.6895
asg13
I5
sbag2
(g3
g4
Ntp90
Rp91
(dp92
g8
I4
sg9
(lp93
I19
aI42
aI4
aI29
asg11
(lp94
F-3.9736
aF-6.6934
aF-2.1878
aF-4.7489
asg13
I6
sbag2
(g3
g4
Ntp95
Rp96
(dp97
g8
I3
sg9
(lp98
I25
aI38
aI8
asg11
(lp99
F-4.4793
aF-5.7149
aF-3.1398
asg13
I7
sbag2
(g3
g4
Ntp100
Rp101
(dp102
g8
I6
sg9
(lp103
I5
aI15
aI23
aI27
aI28
aI26
asg11
(lp104
F-2.3792
aF-3.5847
aF-4.3875
aF-4.5732
aF-4.6446
aF-4.5171
asg13
I8
sbag2
(g3
g4
Ntp105
Rp106
(dp107
g8
I3
sg9
(lp108
I34
aI10
aI13
asg11
(lp109
F-5.1
aF-3.2415
aF-3.401
asg13
I9
sbaa(lp110
g2
(g3
g4
Ntp111
Rp112
(dp113
g8
I3
sg9
(lp114
I33
aI14
aI43
asg11
(lp115
F-4.6501
aF-3.4507
aF-6.4724
asg13
I0
sbag2
(g3
g4
Ntp116
Rp117
(dp118
g8
I4
sg9
(lp119
I13
aI37
aI16
aI8
asg11
(lp120
F-3.3667
aF-5.1774
aF-3.5832
aF-2.7133
asg13
I1
sbag2
(g3
g4
Ntp121
Rp122
(dp123
g8
I4
sg9
(lp124
I45
aI34
aI12
aI29
asg11
(lp125
F-8.0128
aF-4.6815
aF-3.2475
aF-4.2186
asg13
I2
sbag2
(g3
g4
Ntp126
Rp127
(dp128
g8
I5
sg9
(lp129
I3
aI22
aI4
aI20
aI26
asg11
(lp130
F-1.7348
aF-3.8557
aF-2.1744
aF-3.7175
aF-4.0234
asg13
I3
sbag2
(g3
g4
Ntp131
Rp132
(dp133
g8
I5
sg9
(lp134
I7
aI39
aI35
aI40
aI19
asg11
(lp135
F-2.6813
aF-5.3426
aF-5.0536
aF-5.7499
aF-3.706
asg13
I4
sbag2
(g3
g4
Ntp136
Rp137
(dp138
g8
I6
sg9
(lp139
I23
aI24
aI28
aI31
aI18
aI42
asg11
(lp140
F-3.8576
aF-3.9067
aF-4.1696
aF-4.4257
aF-3.6827
aF-6.3607
asg13
I5
sbag2
(g3
g4
Ntp141
Rp142
(dp143
g8
I4
sg9
(lp144
I2
aI17
aI11
aI36
asg11
(lp145
F-0.79877
aF-3.6215
aF-3.2134
aF-5.1333
asg13
I6
sbag2
(g3
g4
Ntp146
Rp147
(dp148
g8
I5
sg9
(lp149
I6
aI5
aI9
aI15
aI38
asg11
(lp150
F-2.615
aF-2.5018
aF-2.9184
aF-3.4535
aF-5.338
asg13
I7
sbag2
(g3
g4
Ntp151
Rp152
(dp153
g8
I5
sg9
(lp154
I44
aI1
aI27
aI41
aI25
asg11
(lp155
F-7.9348
aF0.83099
aF-4.0577
aF-5.8061
aF-3.9467
asg13
I8
sbag2
(g3
g4
Ntp156
Rp157
(dp158
g8
I4
sg9
(lp159
I30
aI21
aI32
aI10
asg11
(lp160
F-4.3127
aF-3.8403
aF-4.5524
aF-3.2036
asg13
I9
sbaa.