(lp0
(lp1
ccopy_reg
_reconstructor
p2
(ctrial
OptionResult
p3
c__builtin__
object
p4
Ntp5
Rp6
(dp7
S'expected_counts'
p8
I4
sS'sort_positions'
p9
(lp10
I21
aI41
aI15
aI23
asS'eegs'
p11
(lp12
F-4.2424e-10
aF-1.0027e-09
aF-3.3524e-10
aF-4.782e-10
asS'idx'
p13
I0
sbag2
(g3
g4
Ntp14
Rp15
(dp16
g8
I5
sg9
(lp17
I37
aI10
aI26
aI19
aI2
asg11
(lp18
F-8.8365e-10
aF-4.5597e-11
aF-5.9315e-10
aF-3.9933e-10
aF1.7536e-10
asg13
I1
sbag2
(g3
g4
Ntp19
Rp20
(dp21
g8
I6
sg9
(lp22
I48
aI28
aI3
aI38
aI33
aI42
asg11
(lp23
F-1.5564e-09
aF-6.9719e-10
aF1.6153e-10
aF-9.5863e-10
aF-7.8768e-10
aF-1.0245e-09
asg13
I2
sbag2
(g3
g4
Ntp24
Rp25
(dp26
g8
I5
sg9
(lp27
I29
aI4
aI11
aI9
aI1
asg11
(lp28
F-7.0151e-10
aF1.4312e-10
aF-6.9318e-11
aF-3.4619e-11
aF3.7193e-10
asg13
I3
sbag2
(g3
g4
Ntp29
Rp30
(dp31
g8
I4
sg9
(lp32
I16
aI8
aI7
aI27
asg11
(lp33
F-3.6742e-10
aF-2.0803e-11
aF4.0905e-13
aF-6.9012e-10
asg13
I4
sbag2
(g3
g4
Ntp34
Rp35
(dp36
g8
I5
sg9
(lp37
I35
aI25
aI12
aI46
aI44
asg11
(lp38
F-8.0492e-10
aF-5.3664e-10
aF-1.0004e-10
aF-1.1414e-09
aF-1.0658e-09
asg13
I5
sbag2
(g3
g4
Ntp39
Rp40
(dp41
g8
I3
sg9
(lp42
I6
aI22
aI20
asg11
(lp43
F7.7456e-11
aF-4.7794e-10
aF-4.1683e-10
asg13
I6
sbag2
(g3
g4
Ntp44
Rp45
(dp46
g8
I4
sg9
(lp47
I17
aI36
aI24
aI5
asg11
(lp48
F-3.7562e-10
aF-8.1262e-10
aF-5.2773e-10
aF1.0919e-10
asg13
I7
sbag2
(g3
g4
Ntp49
Rp50
(dp51
g8
I6
sg9
(lp52
I40
aI43
aI18
aI47
aI39
aI45
asg11
(lp53
F-9.701e-10
aF-1.0524e-09
aF-3.9596e-10
aF-1.1887e-09
aF-9.6884e-10
aF-1.1218e-09
asg13
I8
sbag2
(g3
g4
Ntp54
Rp55
(dp56
g8
I6
sg9
(lp57
I32
aI13
aI30
aI31
aI14
aI34
asg11
(lp58
F-7.7786e-10
aF-1.1979e-10
aF-7.0875e-10
aF-7.3005e-10
aF-3.2432e-10
aF-8.0094e-10
asg13
I9
sbaa(lp59
g2
(g3
g4
Ntp60
Rp61
(dp62
g8
I3
sg9
(lp63
I8
aI27
aI20
asg11
(lp64
F-3.446e-10
aF-6.6686e-10
aF-5.1149e-10
asg13
I0
sbag2
(g3
g4
Ntp65
Rp66
(dp67
g8
I4
sg9
(lp68
I37
aI17
aI1
aI35
asg11
(lp69
F-1.1069e-09
aF-4.858e-10
aF6.9855e-10
aF-1.039e-09
asg13
I1
sbag2
(g3
g4
Ntp70
Rp71
(dp72
g8
I5
sg9
(lp73
I22
aI33
aI34
aI2
aI23
asg11
(lp74
F-5.2911e-10
aF-9.3298e-10
aF-1.0386e-09
aF2.804e-10
aF-5.4428e-10
asg13
I2
sbag2
(g3
g4
Ntp75
Rp76
(dp77
g8
I4
sg9
(lp78
I6
aI18
aI36
aI15
asg11
(lp79
F-2.8639e-10
aF-5.0957e-10
aF-1.0396e-09
aF-4.4958e-10
asg13
I3
sbag2
(g3
g4
Ntp80
Rp81
(dp82
g8
I6
sg9
(lp83
I30
aI25
aI3
aI29
aI38
aI9
asg11
(lp84
F-8.2395e-10
aF-5.9324e-10
aF-4.3173e-11
aF-6.9228e-10
aF-1.1673e-09
aF-3.6206e-10
asg13
I4
sbag2
(g3
g4
Ntp85
Rp86
(dp87
g8
I4
sg9
(lp88
I28
aI26
aI16
aI31
asg11
(lp89
F-6.8071e-10
aF-6.02e-10
aF-4.8462e-10
aF-8.966e-10
asg13
I5
sbag2
(g3
g4
Ntp90
Rp91
(dp92
g8
I3
sg9
(lp93
I14
aI32
aI11
asg11
(lp94
F-4.4126e-10
aF-9.0837e-10
aF-4.0197e-10
asg13
I6
sbag2
(g3
g4
Ntp95
Rp96
(dp97
g8
I3
sg9
(lp98
I5
aI7
aI13
asg11
(lp99
F-2.3375e-10
aF-3.2498e-10
aF-4.4022e-10
asg13
I7
sbag2
(g3
g4
Ntp100
Rp101
(dp102
g8
I3
sg9
(lp103
I19
aI12
aI21
asg11
(lp104
F-5.1008e-10
aF-4.0833e-10
aF-5.1867e-10
asg13
I8
sbag2
(g3
g4
Ntp105
Rp106
(dp107
g8
I3
sg9
(lp108
I24
aI4
aI10
asg11
(lp109
F-5.4509e-10
aF-1.1437e-10
aF-3.7666e-10
asg13
I9
sbaa(lp110
g2
(g3
g4
Ntp111
Rp112
(dp113
g8
I5
sg9
(lp114
I36
aI9
aI2
aI29
aI1
asg11
(lp115
F-8.079e-10
aF-1.2505e-10
aF1.3695e-10
aF-7.1577e-10
aF4.3702e-10
asg13
I0
sbag2
(g3
g4
Ntp116
Rp117
(dp118
g8
I6
sg9
(lp119
I43
aI20
aI7
aI42
aI34
aI50
asg11
(lp120
F-8.7982e-10
aF-3.9887e-10
aF-7.1374e-11
aF-8.6917e-10
aF-7.8755e-10
aF-1.3007e-09
asg13
I1
sbag2
(g3
g4
Ntp121
Rp122
(dp123
g8
I4
sg9
(lp124
I10
aI35
aI30
aI24
asg11
(lp125
F-1.5458e-10
aF-7.9946e-10
aF-7.1789e-10
aF-5.205e-10
asg13
I2
sbag2
(g3
g4
Ntp126
Rp127
(dp128
g8
I5
sg9
(lp129
I4
aI33
aI3
aI25
aI13
asg11
(lp130
F7.6294e-11
aF-7.6515e-10
aF1.2068e-10
aF-5.3105e-10
aF-2.3742e-10
asg13
I3
sbag2
(g3
g4
Ntp131
Rp132
(dp133
g8
I5
sg9
(lp134
I41
aI32
aI37
aI22
aI15
asg11
(lp135
F-8.4998e-10
aF-7.6461e-10
aF-8.0834e-10
aF-4.6888e-10
aF-2.6864e-10
asg13
I4
sbag2
(g3
g4
Ntp136
Rp137
(dp138
g8
I5
sg9
(lp139
I28
aI45
aI18
aI46
aI47
asg11
(lp140
F-7.102e-10
aF-9.2665e-10
aF-3.68e-10
aF-9.2875e-10
aF-9.5994e-10
asg13
I5
sbag2
(g3
g4
Ntp141
Rp142
(dp143
g8
I6
sg9
(lp144
I27
aI38
aI21
aI17
aI31
aI39
asg11
(lp145
F-5.6272e-10
aF-8.2257e-10
aF-4.6358e-10
aF-3.292e-10
aF-7.3115e-10
aF-8.2531e-10
asg13
I6
sbag2
(g3
g4
Ntp146
Rp147
(dp148
g8
I6
sg9
(lp149
I49
aI6
aI44
aI11
aI40
aI12
asg11
(lp150
F-1.2101e-09
aF2.9179e-11
aF-9.246e-10
aF-1.8154e-10
aF-8.2968e-10
aF-1.9062e-10
asg13
I7
sbag2
(g3
g4
Ntp151
Rp152
(dp153
g8
I4
sg9
(lp154
I19
aI48
aI14
aI8
asg11
(lp155
F-3.8792e-10
aF-1.1302e-09
aF-2.5953e-10
aF-1.2119e-10
asg13
I8
sbag2
(g3
g4
Ntp156
Rp157
(dp158
g8
I4
sg9
(lp159
I16
aI26
aI5
aI23
asg11
(lp160
F-2.8541e-10
aF-5.4729e-10
aF4.206e-11
aF-5.1033e-10
asg13
I9
sbaa(lp161
g2
(g3
g4
Ntp162
Rp163
(dp164
g8
I6
sg9
(lp165
I9
aI16
aI51
aI3
aI6
aI1
asg11
(lp166
F-1.3815e-10
aF-3.264e-10
aF-1.0693e-09
aF1.2967e-10
aF-1.2296e-10
aF5.369e-10
asg13
I0
sbag2
(g3
g4
Ntp167
Rp168
(dp169
g8
I4
sg9
(lp170
I32
aI7
aI30
aI19
asg11
(lp171
F-6.459e-10
aF-1.2472e-10
aF-6.305e-10
aF-4.499e-10
asg13
I1
sbag2
(g3
g4
Ntp172
Rp173
(dp174
g8
I5
sg9
(lp175
I21
aI25
aI20
aI37
aI12
asg11
(lp176
F-4.9517e-10
aF-5.5739e-10
aF-4.8158e-10
aF-7.9165e-10
aF-2.6687e-10
asg13
I2
sbag2
(g3
g4
Ntp177
Rp178
(dp179
g8
I5
sg9
(lp180
I35
aI22
aI26
aI11
aI41
asg11
(lp181
F-7.1944e-10
aF-4.9755e-10
aF-5.6875e-10
aF-2.5483e-10
aF-8.6558e-10
asg13
I3
sbag2
(g3
g4
Ntp182
Rp183
(dp184
g8
I4
sg9
(lp185
I45
aI36
aI46
aI23
asg11
(lp186
F-9.3457e-10
aF-7.7698e-10
aF-9.7123e-10
aF-5.1254e-10
asg13
I4
sbag2
(g3
g4
Ntp187
Rp188
(dp189
g8
I6
sg9
(lp190
I2
aI44
aI43
aI14
aI33
aI17
asg11
(lp191
F4.4742e-10
aF-9.0703e-10
aF-8.7092e-10
aF-2.8737e-10
aF-6.5023e-10
aF-3.2725e-10
asg13
I5
sbag2
(g3
g4
Ntp192
Rp193
(dp194
g8
I4
sg9
(lp195
I5
aI4
aI48
aI10
asg11
(lp196
F-6.1045e-11
aF-4.8126e-12
aF-1.0081e-09
aF-2.233e-10
asg13
I6
sbag2
(g3
g4
Ntp197
Rp198
(dp199
g8
I6
sg9
(lp200
I27
aI34
aI8
aI38
aI18
aI47
asg11
(lp201
F-5.7227e-10
aF-6.7997e-10
aF-1.3528e-10
aF-7.9387e-10
aF-4.2953e-10
aF-9.9663e-10
asg13
I7
sbag2
(g3
g4
Ntp202
Rp203
(dp204
g8
I6
sg9
(lp205
I31
aI24
aI28
aI42
aI29
aI39
asg11
(lp206
F-6.4271e-10
aF-5.2029e-10
aF-6.1618e-10
aF-8.6763e-10
aF-6.1652e-10
aF-8.3359e-10
asg13
I8
sbag2
(g3
g4
Ntp207
Rp208
(dp209
g8
I5
sg9
(lp210
I13
aI40
aI15
aI49
aI50
asg11
(lp211
F-2.8367e-10
aF-8.6114e-10
aF-3.0701e-10
aF-1.0227e-09
aF-1.0405e-09
asg13
I9
sbaa(lp212
g2
(g3
g4
Ntp213
Rp214
(dp215
g8
I5
sg9
(lp216
I1
aI37
aI10
aI4
aI21
asg11
(lp217
F4.1391e-10
aF-9.2835e-10
aF-3.0581e-10
aF-1.0948e-10
aF-5.3657e-10
asg13
I0
sbag2
(g3
g4
Ntp218
Rp219
(dp220
g8
I3
sg9
(lp221
I41
aI34
aI35
asg11
(lp222
F-1.1835e-09
aF-8.4814e-10
aF-8.634e-10
asg13
I1
sbag2
(g3
g4
Ntp223
Rp224
(dp225
g8
I3
sg9
(lp226
I3
aI2
aI25
asg11
(lp227
F-8.5895e-11
aF-7.9887e-11
aF-6.1313e-10
asg13
I2
sbag2
(g3
g4
Ntp228
Rp229
(dp230
g8
I4
sg9
(lp231
I9
aI14
aI19
aI32
asg11
(lp232
F-2.7344e-10
aF-3.8479e-10
aF-5.0629e-10
aF-7.8116e-10
asg13
I3
sbag2
(g3
g4
Ntp233
Rp234
(dp235
g8
I3
sg9
(lp236
I24
aI28
aI29
asg11
(lp237
F-5.9169e-10
aF-7.3556e-10
aF-7.422e-10
asg13
I4
sbag2
(g3
g4
Ntp238
Rp239
(dp240
g8
I3
sg9
(lp241
I13
aI30
aI6
asg11
(lp242
F-3.4551e-10
aF-7.5184e-10
aF-1.348e-10
asg13
I5
sbag2
(g3
g4
Ntp243
Rp244
(dp245
g8
I6
sg9
(lp246
I8
aI12
aI26
aI11
aI5
aI33
asg11
(lp247
F-2.3877e-10
aF-3.3505e-10
aF-6.1977e-10
aF-3.0964e-10
aF-1.2859e-10
aF-7.9492e-10
asg13
I6
sbag2
(g3
g4
Ntp248
Rp249
(dp250
g8
I4
sg9
(lp251
I39
aI38
aI17
aI31
asg11
(lp252
F-1.0717e-09
aF-1.0042e-09
aF-4.6646e-10
aF-7.6385e-10
asg13
I7
sbag2
(g3
g4
Ntp253
Rp254
(dp255
g8
I5
sg9
(lp256
I40
aI22
aI15
aI23
aI20
asg11
(lp257
F-1.1683e-09
aF-5.4957e-10
aF-4.1038e-10
aF-5.8315e-10
aF-5.3623e-10
asg13
I8
sbag2
(g3
g4
Ntp258
Rp259
(dp260
g8
I5
sg9
(lp261
I36
aI7
aI27
aI18
aI16
asg11
(lp262
F-8.7474e-10
aF-2.0349e-10
aF-6.7519e-10
aF-4.6894e-10
aF-4.3522e-10
asg13
I9
sbaa(lp263
g2
(g3
g4
Ntp264
Rp265
(dp266
g8
I5
sg9
(lp267
I15
aI31
aI3
aI14
aI9
asg11
(lp268
F-3.3219e-10
aF-6.4227e-10
aF-9.644e-11
aF-3.3217e-10
aF-1.8134e-10
asg13
I0
sbag2
(g3
g4
Ntp269
Rp270
(dp271
g8
I4
sg9
(lp272
I47
aI37
aI42
aI41
asg11
(lp273
F-1.3544e-09
aF-7.8167e-10
aF-9.1704e-10
aF-9.1003e-10
asg13
I1
sbag2
(g3
g4
Ntp274
Rp275
(dp276
g8
I5
sg9
(lp277
I6
aI4
aI13
aI22
aI38
asg11
(lp278
F-1.6766e-10
aF-1.1434e-10
aF-2.9518e-10
aF-4.7618e-10
aF-8.3405e-10
asg13
I2
sbag2
(g3
g4
Ntp279
Rp280
(dp281
g8
I5
sg9
(lp282
I21
aI26
aI35
aI18
aI28
asg11
(lp283
F-4.6656e-10
aF-5.5811e-10
aF-6.8052e-10
aF-4.2385e-10
aF-6.0328e-10
asg13
I3
sbag2
(g3
g4
Ntp284
Rp285
(dp286
g8
I4
sg9
(lp287
I10
aI43
aI12
aI23
asg11
(lp288
F-2.3928e-10
aF-9.4053e-10
aF-2.8526e-10
aF-5.0612e-10
asg13
I4
sbag2
(g3
g4
Ntp289
Rp290
(dp291
g8
I6
sg9
(lp292
I32
aI39
aI36
aI34
aI7
aI24
asg11
(lp293
F-6.4621e-10
aF-8.6089e-10
aF-7.6857e-10
aF-6.7103e-10
aF-1.6777e-10
aF-5.2685e-10
asg13
I5
sbag2
(g3
g4
Ntp294
Rp295
(dp296
g8
I4
sg9
(lp297
I33
aI46
aI5
aI8
asg11
(lp298
F-6.6052e-10
aF-1.0579e-09
aF-1.1591e-10
aF-1.787e-10
asg13
I6
sbag2
(g3
g4
Ntp299
Rp300
(dp301
g8
I5
sg9
(lp302
I16
aI29
aI40
aI30
aI45
asg11
(lp303
F-3.4088e-10
aF-6.328e-10
aF-8.8943e-10
aF-6.3861e-10
aF-9.7125e-10
asg13
I7
sbag2
(g3
g4
Ntp304
Rp305
(dp306
g8
I5
sg9
(lp307
I11
aI27
aI17
aI19
aI44
asg11
(lp308
F-2.7844e-10
aF-5.7307e-10
aF-3.8909e-10
aF-4.3803e-10
aF-9.4212e-10
asg13
I8
sbag2
(g3
g4
Ntp309
Rp310
(dp311
g8
I4
sg9
(lp312
I20
aI1
aI25
aI2
asg11
(lp313
F-4.5011e-10
aF1.7534e-10
aF-5.3402e-10
aF-8.6984e-11
asg13
I9
sbaa(lp314
g2
(g3
g4
Ntp315
Rp316
(dp317
g8
I4
sg9
(lp318
I1
aI2
aI8
aI4
asg11
(lp319
F2.3437e-10
aF2.0451e-10
aF-2.4921e-10
aF2.0794e-11
asg13
I0
sbag2
(g3
g4
Ntp320
Rp321
(dp322
g8
I6
sg9
(lp323
I43
aI6
aI17
aI26
aI7
aI28
asg11
(lp324
F-1.1385e-09
aF-2.1634e-10
aF-3.3912e-10
aF-6.4504e-10
aF-2.2239e-10
aF-6.7326e-10
asg13
I1
sbag2
(g3
g4
Ntp325
Rp326
(dp327
g8
I4
sg9
(lp328
I41
aI33
aI36
aI23
asg11
(lp329
F-1.0127e-09
aF-7.3195e-10
aF-8.6129e-10
aF-6.0482e-10
asg13
I2
sbag2
(g3
g4
Ntp330
Rp331
(dp332
g8
I6
sg9
(lp333
I25
aI38
aI10
aI15
aI9
aI21
asg11
(lp334
F-6.2028e-10
aF-8.9952e-10
aF-2.5342e-10
aF-3.3212e-10
aF-2.5001e-10
aF-5.3434e-10
asg13
I3
sbag2
(g3
g4
Ntp335
Rp336
(dp337
g8
I6
sg9
(lp338
I22
aI5
aI3
aI37
aI18
aI27
asg11
(lp339
F-5.3632e-10
aF-1.7761e-10
aF1.1802e-10
aF-8.9135e-10
aF-3.412e-10
aF-6.5657e-10
asg13
I4
sbag2
(g3
g4
Ntp340
Rp341
(dp342
g8
I5
sg9
(lp343
I39
aI11
aI20
aI16
aI35
asg11
(lp344
F-9.8465e-10
aF-2.5478e-10
aF-4.9314e-10
aF-3.3554e-10
aF-8.1658e-10
asg13
I5
sbag2
(g3
g4
Ntp345
Rp346
(dp347
g8
I4
sg9
(lp348
I19
aI32
aI42
aI24
asg11
(lp349
F-3.6952e-10
aF-7.2925e-10
aF-1.1244e-09
aF-6.1576e-10
asg13
I6
sbag2
(g3
g4
Ntp350
Rp351
(dp352
g8
I3
sg9
(lp353
I40
aI34
aI29
asg11
(lp354
F-1.012e-09
aF-8.1439e-10
aF-6.8361e-10
asg13
I7
sbag2
(g3
g4
Ntp355
Rp356
(dp357
g8
I3
sg9
(lp358
I30
aI12
aI13
asg11
(lp359
F-6.8749e-10
aF-2.7783e-10
aF-2.7816e-10
asg13
I8
sbag2
(g3
g4
Ntp360
Rp361
(dp362
g8
I3
sg9
(lp363
I44
aI31
aI14
asg11
(lp364
F-1.1496e-09
aF-6.9166e-10
aF-2.915e-10
asg13
I9
sbaa(lp365
g2
(g3
g4
Ntp366
Rp367
(dp368
g8
I6
sg9
(lp369
I25
aI3
aI33
aI9
aI29
asg11
(lp370
F-6.2028e-10
aF1.1802e-10
aF-7.3195e-10
aF-2.5001e-10
aF-6.8361e-10
asg13
I0
sbag2
(g3
g4
Ntp371
Rp372
(dp373
g8
I3
sg9
(lp374
I39
aI37
aI28
asg11
(lp375
F-9.8465e-10
aF-8.9135e-10
aF-6.7326e-10
asg13
I1
sbag2
(g3
g4
Ntp376
Rp377
(dp378
g8
I3
sg9
(lp379
I19
aI13
aI36
asg11
(lp380
F-3.6952e-10
aF-2.7816e-10
aF-8.6129e-10
asg13
I2
sbag2
(g3
g4
Ntp381
Rp382
(dp383
g8
I4
sg9
(lp384
I22
aI42
aI30
aI10
asg11
(lp385
F-5.3632e-10
aF-1.1244e-09
aF-6.8749e-10
aF-2.5342e-10
asg13
I3
sbag2
(g3
g4
Ntp386
Rp387
(dp388
g8
I5
sg9
(lp389
I1
aI43
aI26
aI18
aI27
asg11
(lp390
F2.3437e-10
aF-1.1385e-09
aF-6.4504e-10
aF-3.412e-10
aF-6.5657e-10
asg13
I4
sbag2
(g3
g4
Ntp391
Rp392
(dp393
g8
I4
sg9
(lp394
I38
aI40
aI14
aI4
asg11
(lp395
F-8.9952e-10
aF-1.012e-09
aF-2.915e-10
aF2.0794e-11
asg13
I5
sbag2
(g3
g4
Ntp396
Rp397
(dp398
g8
I6
sg9
(lp399
I5
aI31
aI24
aI6
aI17
aI35
asg11
(lp400
F-1.7761e-10
aF-6.9166e-10
aF-6.1576e-10
aF-2.1634e-10
aF-3.3912e-10
aF-8.1658e-10
asg13
I6
sbag2
(g3
g4
Ntp401
Rp402
(dp403
g8
I6
sg9
(lp404
I44
aI2
aI20
aI21
aI23
asg11
(lp405
F-1.1496e-09
aF2.0451e-10
aF-4.9314e-10
aF-5.3434e-10
aF-6.0482e-10
asg13
I7
sbag2
(g3
g4
Ntp406
Rp407
(dp408
g8
I6
sg9
(lp409
I11
aI41
aI32
aI12
aI34
aI16
asg11
(lp410
F-2.5478e-10
aF-1.0127e-09
aF-7.2925e-10
aF-2.7783e-10
aF-8.1439e-10
aF-3.3554e-10
asg13
I8
sbag2
(g3
g4
Ntp411
Rp412
(dp413
g8
I3
sg9
(lp414
I8
aI15
aI7
asg11
(lp415
F-2.4921e-10
aF-3.3212e-10
aF-2.2239e-10
asg13
I9
sbaa(lp416
g2
(g3
g4
Ntp417
Rp418
(dp419
g8
I5
sg9
(lp420
I32
aI25
aI19
aI3
aI7
asg11
(lp421
F-6.088e-10
aF-4.8673e-10
aF-4.2236e-10
aF-6.8922e-11
aF-1.791e-10
asg13
I0
sbag2
(g3
g4
Ntp422
Rp423
(dp424
g8
I3
sg9
(lp425
I9
aI4
aI11
asg11
(lp426
F-1.9648e-10
aF-8.5153e-11
aF-2.2514e-10
asg13
I1
sbag2
(g3
g4
Ntp427
Rp428
(dp429
g8
I6
sg9
(lp430
I37
aI33
aI46
aI44
aI34
aI1
asg11
(lp431
F-6.6561e-10
aF-6.0985e-10
aF-8.9581e-10
aF-8.7973e-10
aF-6.2539e-10
aF4.4553e-11
asg13
I2
sbag2
(g3
g4
Ntp432
Rp433
(dp434
g8
I5
sg9
(lp435
I14
aI15
aI24
aI42
aI21
asg11
(lp436
F-3.6463e-10
aF-3.7511e-10
aF-4.6242e-10
aF-7.6323e-10
aF-4.3114e-10
asg13
I3
sbag2
(g3
g4
Ntp437
Rp438
(dp439
g8
I5
sg9
(lp440
I10
aI50
aI23
aI20
aI35
asg11
(lp441
F-2.026e-10
aF-1.1965e-09
aF-4.3732e-10
aF-4.2336e-10
aF-6.3468e-10
asg13
I4
sbag2
(g3
g4
Ntp442
Rp443
(dp444
g8
I5
sg9
(lp445
I39
aI40
aI6
aI43
aI17
asg11
(lp446
F-7.4787e-10
aF-7.5852e-10
aF-1.6748e-10
aF-8.2092e-10
aF-3.9919e-10
asg13
I5
sbag2
(g3
g4
Ntp447
Rp448
(dp449
g8
I5
sg9
(lp450
I22
aI18
aI30
aI48
aI12
asg11
(lp451
F-4.373e-10
aF-4.0284e-10
aF-5.9974e-10
aF-1.037e-09
aF-2.4989e-10
asg13
I6
sbag2
(g3
g4
Ntp452
Rp453
(dp454
g8
I5
sg9
(lp455
I5
aI29
aI47
aI41
aI13
asg11
(lp456
F-1.397e-10
aF-5.9638e-10
aF-9.1102e-10
aF-7.6215e-10
aF-3.2432e-10
asg13
I7
sbag2
(g3
g4
Ntp457
Rp458
(dp459
g8
I5
sg9
(lp460
I45
aI16
aI2
aI8
aI31
asg11
(lp461
F-8.9503e-10
aF-3.7851e-10
aF-6.2166e-11
aF-1.8196e-10
aF-6.04e-10
asg13
I8
sbag2
(g3
g4
Ntp462
Rp463
(dp464
g8
I6
sg9
(lp465
I36
aI26
aI28
aI27
aI38
aI49
asg11
(lp466
F-6.4236e-10
aF-4.9442e-10
aF-5.8523e-10
aF-5.4616e-10
aF-7.3432e-10
aF-1.1735e-09
asg13
I9
sbaa.